 detection

 Timestamp is 5b356e91 (Thu Jun 28 16:26:09 2018)

 Preferred load address is 0000000180000000

 Start         Length     Name                   Class
 0001:00000000 00000060H .text$di                CODE
 0001:00000060 000188b0H .text$mn                CODE
 0001:00018910 00000020H .text$mn$00             CODE
 0001:00018930 000003d0H .text$x                 CODE
 0001:00018d00 00000078H .text$yd                CODE
 0002:00000000 00000430H .idata$5                DATA
 0002:00000430 00000010H .00cfg                  DATA
 0002:00000440 00000008H .CRT$XCA                DATA
 0002:00000448 00000008H .CRT$XCL                DATA
 0002:00000450 00000010H .CRT$XCU                DATA
 0002:00000460 00000008H .CRT$XCZ                DATA
 0002:00000468 00000008H .CRT$XIA                DATA
 0002:00000470 00000018H .CRT$XIC                DATA
 0002:00000488 00000008H .CRT$XIZ                DATA
 0002:00000490 00000008H .CRT$XPA                DATA
 0002:00000498 00000010H .CRT$XPX                DATA
 0002:000004a8 00000008H .CRT$XPXA               DATA
 0002:000004b0 00000008H .CRT$XPZ                DATA
 0002:000004b8 00000008H .CRT$XTA                DATA
 0002:000004c0 00000010H .CRT$XTZ                DATA
 0002:000004c8 00000000H .gfids$y                DATA
 0002:000004d0 00008230H .rdata                  DATA
 0002:00008700 00000404H .rdata$r                DATA
 0002:00008b04 00000374H .rdata$zzzdbg           DATA
 0002:00008e78 00000008H .rtc$IAA                DATA
 0002:00008e80 00000008H .rtc$IZZ                DATA
 0002:00008e88 00000008H .rtc$TAA                DATA
 0002:00008e90 00000008H .rtc$TZZ                DATA
 0002:00008e98 000016b0H .xdata                  DATA
 0002:0000a548 00000248H .xdata$x                DATA
 0002:0000a790 00000000H ATL$__a                 DATA
 0002:0000a790 00000000H ATL$__z                 DATA
 0002:0000a790 00000058H .edata                  DATA
 0002:0000a7e8 00000050H .idata$2                DATA
 0002:0000a838 00000018H .idata$3                DATA
 0002:0000a850 00000430H .idata$4                DATA
 0002:0000ac80 00001134H .idata$6                DATA
 0003:00000000 00000990H .data                   DATA
 0003:00000990 00000140H .data$r                 DATA
 0003:00000ad0 00001514H .bss                    DATA
 0004:00000000 0000195cH .pdata                  DATA
 0005:00000000 00000060H .rsrc$01                DATA
 0005:00000060 00000180H .rsrc$02                DATA

  Address         Publics by Value              Rva+Base               Lib:Object

 0000:00000000       __guard_iat_count          0000000000000000     <absolute>
 0000:00000000       __dynamic_value_reloc_table 0000000000000000     <absolute>
 0000:00000000       __hybrid_code_map          0000000000000000     <absolute>
 0000:00000000       __hybrid_code_map_count    0000000000000000     <absolute>
 0000:00000000       __guard_iat_table          0000000000000000     <absolute>
 0000:00000000       __hybrid_auxiliary_iat     0000000000000000     <absolute>
 0000:00000000       __guard_longjmp_table      0000000000000000     <absolute>
 0000:00000000       __guard_longjmp_count      0000000000000000     <absolute>
 0000:00000000       __guard_fids_count         0000000000000000     <absolute>
 0000:00000000       __enclave_config           0000000000000000     <absolute>
 0000:00000000       ___safe_se_handler_table   0000000000000000     <absolute>
 0000:00000000       ___safe_se_handler_count   0000000000000000     <absolute>
 0000:00000000       __guard_fids_table         0000000000000000     <absolute>
 0000:00000100       __guard_flags              0000000000000100     <absolute>
 0000:00000000       __ImageBase                0000000180000000     <linker-defined>
 0001:00000140       ?ThrowTypeError@Nan@@YAXPEBD@Z 0000000180001140 f i detection.obj
 0001:000001d0       ?Call@Callback@Nan@@QEBA?AV?$Local@VValue@v8@@@v8@@HQEAV34@@Z 00000001800011d0 f i detection.obj
 0001:000003f0       ??1ListResultItem_t@@QEAA@XZ 00000001800013f0 f i detection.obj
 0001:000004f0       ?RegisterAdded@@YAXAEBV?$FunctionCallbackInfo@VValue@v8@@@Nan@@@Z 00000001800014f0 f   detection.obj
 0001:000005d0       ?NotifyAdded@@YAXPEAUListResultItem_t@@@Z 00000001800015d0 f   detection.obj
 0001:000009b0       ?RegisterRemoved@@YAXAEBV?$FunctionCallbackInfo@VValue@v8@@@Nan@@@Z 00000001800019b0 f   detection.obj
 0001:00000a90       ?NotifyRemoved@@YAXPEAUListResultItem_t@@@Z 0000000180001a90 f   detection.obj
 0001:00000e70       ?Find@@YAXAEBV?$FunctionCallbackInfo@VValue@v8@@@Nan@@@Z 0000000180001e70 f   detection.obj
 0001:000011a0       ?EIO_AfterFind@@YAXPEAUuv_work_s@@@Z 00000001800021a0 f   detection.obj
 0001:000016d0       ?StartMonitoring@@YAXAEBV?$FunctionCallbackInfo@VValue@v8@@@Nan@@@Z 00000001800026d0 f   detection.obj
 0001:000017a0       ?cbTerminate@@YAXPEAUuv_signal_s@@H@Z 00000001800027a0 f   detection_win.obj
 0001:000017a0       ?StopMonitoring@@YAXAEBV?$FunctionCallbackInfo@VValue@v8@@@Nan@@@Z 00000001800027a0 f   detection.obj
 0001:000017f0       init                       00000001800027f0 f   detection.obj
 0001:00001880       ??$SetMethod@VObject@v8@@VLocal@2@@Nan@@YAXV?$Local@VObject@v8@@@v8@@PEBDP6AXAEBV?$FunctionCallbackInfo@VValue@v8@@@0@@Z@Z 0000000180002880 f i detection.obj
 0001:00001ab0       ??$SetMethodAux@V?$Local@VObject@v8@@@v8@@@imp@Nan@@YAXV?$Local@VObject@v8@@@v8@@V?$Local@VString@v8@@@3@V?$Local@VFunctionTemplate@v8@@@3@ZZ 0000000180002ab0 f i detection.obj
 0001:00001b40       ?AddItemToList@@YAXPEADPEAU_DeviceItem_t@@@Z 0000000180002b40 f   deviceList.obj
 0001:00001c70       ?GetItemFromList@@YAPEAU_DeviceItem_t@@PEAD@Z 0000000180002c70 f   deviceList.obj
 0001:00001e10       ?IsItemAlreadyStored@@YA_NPEAD@Z 0000000180002e10 f   deviceList.obj
 0001:00001fb0       ?CopyElement@@YAPEAUListResultItem_t@@PEAU1@@Z 0000000180002fb0 f   deviceList.obj
 0001:000020b0       ?erase@?$_Tree@V?$_Tmap_traits@V?$basic_string@DU?$char_traits@D@std@@V?$allocator@D@2@@std@@PEAU_DeviceItem_t@@U?$less@V?$basic_string@DU?$char_traits@D@std@@V?$allocator@D@2@@std@@@2@V?$allocator@U?$pair@$$CBV?$basic_string@DU?$char_traits@D@std@@V?$allocator@D@2@@std@@PEAU_DeviceItem_t@@@std@@@2@$0A@@std@@@std@@QEAA?AV?$_Tree_iterator@V?$_Tree_val@U?$_Tree_simple_types@U?$pair@$$CBV?$basic_string@DU?$char_traits@D@std@@V?$allocator@D@2@@std@@PEAU_DeviceItem_t@@@std@@@std@@@std@@@2@V?$_Tree_const_iterator@V?$_Tree_val@U?$_Tree_simple_types@U?$pair@$$CBV?$basic_string@DU?$char_traits@D@std@@V?$allocator@D@2@@std@@PEAU_DeviceItem_t@@@std@@@std@@@std@@@2@0@Z 00000001800030b0 f i deviceList.obj
 0001:00002280       ?assign@?$basic_string@DU?$char_traits@D@std@@V?$allocator@D@2@@std@@QEAAAEAV12@QEBD_K@Z 0000000180003280 f i deviceList.obj
 0001:000023d0       ?_Extract@?$_Tree_val@U?$_Tree_simple_types@U?$pair@$$CBV?$basic_string@DU?$char_traits@D@std@@V?$allocator@D@2@@std@@PEAU_DeviceItem_t@@@std@@@std@@@std@@QEAAPEAU?$_Tree_node@U?$pair@$$CBV?$basic_string@DU?$char_traits@D@std@@V?$allocator@D@2@@std@@PEAU_DeviceItem_t@@@std@@PEAX@2@V?$_Tree_const_iterator@V?$_Tree_val@U?$_Tree_simple_types@U?$pair@$$CBV?$basic_string@DU?$char_traits@D@std@@V?$allocator@D@2@@std@@PEAU_DeviceItem_t@@@std@@@std@@@std@@@2@@Z 00000001800033d0 f i deviceList.obj
 0001:00002880       ?_Erase@?$_Tree@V?$_Tmap_traits@V?$basic_string@DU?$char_traits@D@std@@V?$allocator@D@2@@std@@PEAU_DeviceItem_t@@U?$less@V?$basic_string@DU?$char_traits@D@std@@V?$allocator@D@2@@std@@@2@V?$allocator@U?$pair@$$CBV?$basic_string@DU?$char_traits@D@std@@V?$allocator@D@2@@std@@PEAU_DeviceItem_t@@@std@@@2@$0A@@std@@@std@@IEAAXPEAU?$_Tree_node@U?$pair@$$CBV?$basic_string@DU?$char_traits@D@std@@V?$allocator@D@2@@std@@PEAU_DeviceItem_t@@@std@@PEAX@2@@Z 0000000180003880 f i deviceList.obj
 0001:00002930       ?_Xlen@?$basic_string@DU?$char_traits@D@std@@V?$allocator@D@2@@std@@SAXXZ 0000000180003930 f i deviceList.obj
 0001:00002950       ??$_Eqrange@V?$basic_string@DU?$char_traits@D@std@@V?$allocator@D@2@@std@@@?$_Tree@V?$_Tmap_traits@V?$basic_string@DU?$char_traits@D@std@@V?$allocator@D@2@@std@@PEAU_DeviceItem_t@@U?$less@V?$basic_string@DU?$char_traits@D@std@@V?$allocator@D@2@@std@@@2@V?$allocator@U?$pair@$$CBV?$basic_string@DU?$char_traits@D@std@@V?$allocator@D@2@@std@@PEAU_DeviceItem_t@@@std@@@2@$0A@@std@@@std@@IEBA?AU?$pair@V?$_Tree_const_iterator@V?$_Tree_val@U?$_Tree_simple_types@U?$pair@$$CBV?$basic_string@DU?$char_traits@D@std@@V?$allocator@D@2@@std@@PEAU_DeviceItem_t@@@std@@@std@@@std@@@std@@V12@@1@AEBV?$basic_string@DU?$char_traits@D@std@@V?$allocator@D@2@@1@@Z 0000000180003950 f i deviceList.obj
 0001:00002ae0       ??$_Insert_nohint@AEAU?$pair@$$CBV?$basic_string@DU?$char_traits@D@std@@V?$allocator@D@2@@std@@PEAU_DeviceItem_t@@@std@@PEAU?$_Tree_node@U?$pair@$$CBV?$basic_string@DU?$char_traits@D@std@@V?$allocator@D@2@@std@@PEAU_DeviceItem_t@@@std@@PEAX@2@@?$_Tree@V?$_Tmap_traits@V?$basic_string@DU?$char_traits@D@std@@V?$allocator@D@2@@std@@PEAU_DeviceItem_t@@U?$less@V?$basic_string@DU?$char_traits@D@std@@V?$allocator@D@2@@std@@@2@V?$allocator@U?$pair@$$CBV?$basic_string@DU?$char_traits@D@std@@V?$allocator@D@2@@std@@PEAU_DeviceItem_t@@@std@@@2@$0A@@std@@@std@@IEAA?AU?$pair@V?$_Tree_iterator@V?$_Tree_val@U?$_Tree_simple_types@U?$pair@$$CBV?$basic_string@DU?$char_traits@D@std@@V?$allocator@D@2@@std@@PEAU_DeviceItem_t@@@std@@@std@@@std@@@std@@_N@1@_NAEAU?$pair@$$CBV?$basic_string@DU?$char_traits@D@std@@V?$allocator@D@2@@std@@PEAU_DeviceItem_t@@@1@PEAU?$_Tree_node@U?$pair@$$CBV?$basic_string@DU?$char_traits@D@std@@V?$allocator@D@2@@std@@PEAU_DeviceItem_t@@@std@@PEAX@1@@Z 0000000180003ae0 f i deviceList.obj
 0001:00002cc0       ?_Destroy_if_node@?$_Tree@V?$_Tmap_traits@V?$basic_string@DU?$char_traits@D@std@@V?$allocator@D@2@@std@@PEAU_DeviceItem_t@@U?$less@V?$basic_string@DU?$char_traits@D@std@@V?$allocator@D@2@@std@@@2@V?$allocator@U?$pair@$$CBV?$basic_string@DU?$char_traits@D@std@@V?$allocator@D@2@@std@@PEAU_DeviceItem_t@@@std@@@2@$0A@@std@@@std@@IEAAXPEAU?$_Tree_node@U?$pair@$$CBV?$basic_string@DU?$char_traits@D@std@@V?$allocator@D@2@@std@@PEAU_DeviceItem_t@@@std@@PEAX@2@@Z 0000000180003cc0 f i deviceList.obj
 0001:00002d30       ??$_Insert_at@AEAU?$pair@$$CBV?$basic_string@DU?$char_traits@D@std@@V?$allocator@D@2@@std@@PEAU_DeviceItem_t@@@std@@PEAU?$_Tree_node@U?$pair@$$CBV?$basic_string@DU?$char_traits@D@std@@V?$allocator@D@2@@std@@PEAU_DeviceItem_t@@@std@@PEAX@2@@?$_Tree@V?$_Tmap_traits@V?$basic_string@DU?$char_traits@D@std@@V?$allocator@D@2@@std@@PEAU_DeviceItem_t@@U?$less@V?$basic_string@DU?$char_traits@D@std@@V?$allocator@D@2@@std@@@2@V?$allocator@U?$pair@$$CBV?$basic_string@DU?$char_traits@D@std@@V?$allocator@D@2@@std@@PEAU_DeviceItem_t@@@std@@@2@$0A@@std@@@std@@IEAA?AV?$_Tree_iterator@V?$_Tree_val@U?$_Tree_simple_types@U?$pair@$$CBV?$basic_string@DU?$char_traits@D@std@@V?$allocator@D@2@@std@@PEAU_DeviceItem_t@@@std@@@std@@@std@@@1@_NPEAU?$_Tree_node@U?$pair@$$CBV?$basic_string@DU?$char_traits@D@std@@V?$allocator@D@2@@std@@PEAU_DeviceItem_t@@@std@@PEAX@1@AEAU?$pair@$$CBV?$basic_string@DU?$char_traits@D@std@@V?$allocator@D@2@@std@@PEAU_DeviceItem_t@@@1@1@Z 0000000180003d30 f i deviceList.obj
 0001:00003020       __local_stdio_printf_options 0000000180004020 f i detection_win.obj
 0001:00003030       printf                     0000000180004030 f i detection_win.obj
 0001:00003090       ?_AtlRaiseException@ATL@@YAXKK@Z 0000000180004090 f i detection_win.obj
 0001:000030a0       ?AtlThrowImpl@ATL@@YAXJ@Z  00000001800040a0 f i detection_win.obj
 0001:000030d0       ?_AtlInitializeCriticalSectionEx@ATL@@YAHPEAU_RTL_CRITICAL_SECTION@@KK@Z 00000001800040d0 f i detection_win.obj
 0001:000030e0       ?_AtlGetStringResourceImage@ATL@@YAPEBUATLSTRINGRESOURCEIMAGE@1@PEAUHINSTANCE__@@PEAUHRSRC__@@I@Z 00000001800040e0 f i detection_win.obj
 0001:00003170       ?Allocate@CWin32Heap@ATL@@UEAAPEAX_K@Z 0000000180004170 f i detection_win.obj
 0001:00003180       ?Free@CWin32Heap@ATL@@UEAAXPEAX@Z 0000000180004180 f i detection_win.obj
 0001:000031a0       ?Reallocate@CWin32Heap@ATL@@UEAAPEAXPEAX_K@Z 00000001800041a0 f i detection_win.obj
 0001:000031e0       ?GetSize@CWin32Heap@ATL@@UEAA_KPEAX@Z 00000001800041e0 f i detection_win.obj
 0001:000031f0       ??_ECWin32Heap@ATL@@UEAAPEAXI@Z 00000001800041f0 f i * CIL library *:* CIL module *
 0001:000031f0       ??_GCWin32Heap@ATL@@UEAAPEAXI@Z 00000001800041f0 f i detection_win.obj
 0001:00003240       ?GetInstance@CAtlStringMgr@ATL@@SAPEAUIAtlStringMgr@2@XZ 0000000180004240 f i detection_win.obj
 0001:00003310       ?Allocate@CAtlStringMgr@ATL@@UEAAPEAUCStringData@2@HH@Z 0000000180004310 f i detection_win.obj
 0001:000033b0       ?Free@CAtlStringMgr@ATL@@UEAAXPEAUCStringData@2@@Z 00000001800043b0 f i detection_win.obj
 0001:000033c0       ?Reallocate@CAtlStringMgr@ATL@@UEAAPEAUCStringData@2@PEAU32@HH@Z 00000001800043c0 f i detection_win.obj
 0001:00003430       ?GetNilString@CAtlStringMgr@ATL@@UEAAPEAUCStringData@2@XZ 0000000180004430 f i detection_win.obj
 0001:00003440       ?Clone@CAtlStringMgr@ATL@@UEAAPEAUIAtlStringMgr@2@XZ 0000000180004440 f i detection_win.obj
 0001:00003450       ??_ECAtlStringMgr@ATL@@UEAAPEAXI@Z 0000000180004450 f i * CIL library *:* CIL module *
 0001:00003450       ??_GCAtlStringMgr@ATL@@UEAAPEAXI@Z 0000000180004450 f i detection_win.obj
 0001:00003470       ?cbWork@@YAXPEAUuv_work_s@@@Z 0000000180004470 f   detection_win.obj
 0001:000034d0       ?cbAfter@@YAXPEAUuv_work_s@@@Z 00000001800044d0 f   detection_win.obj
 0001:00003570       ?InitDetection@@YAXXZ      0000000180004570 f   detection_win.obj
 0001:000038d0       ?EIO_Find@@YAXPEAUuv_work_s@@@Z 00000001800048d0 f   detection_win.obj
 0001:00003a30       ?DetectCallback@@YA_JPEAUHWND__@@I_K_J@Z 0000000180004a30 f   detection_win.obj
 0001:00003a80       ?ListenerThread@@YAKPEAX@Z 0000000180004a80 f   detection_win.obj
 0001:00003c60       ?ExtractDeviceInfo@@YAXPEAXPEAU_SP_DEVINFO_DATA@@PEADKPEAUListResultItem_t@@@Z 0000000180004c60 f   detection_win.obj
 0001:00004120       ?UpdateDevice@@YAXPEAU_DEV_BROADCAST_DEVICEINTERFACE_A@@_KW4_DeviceState_t@@@Z 0000000180005120 f   detection_win.obj
 0001:000048a0       ?LoadStringA@?$CStringT@DV?$StrTraitATL@DV?$ChTraitsCRT@D@ATL@@@ATL@@@ATL@@QEAAHI@Z 00000001800058a0 f i detection_win.obj
 0001:00004a30       ?CloneData@?$CSimpleStringT@D$0A@@ATL@@CAPEAUCStringData@2@PEAU32@@Z 0000000180005a30 f i detection_win.obj
 0001:00004ab0       ?SetString@?$CSimpleStringT@D$0A@@ATL@@QEAAXPEBDH@Z 0000000180005ab0 f i detection_win.obj
 0001:00004c10       ?PrepareWrite2@?$CSimpleStringT@D$0A@@ATL@@AEAAXH@Z 0000000180005c10 f i detection_win.obj
 0001:00004c70       ?ThrowMemoryException@?$CSimpleStringT@D$0A@@ATL@@KAXXZ 0000000180005c70 f i detection_win.obj
 0001:00004c80       ?CopyChars@?$CSimpleStringT@D$0A@@ATL@@SAXPEAD_KPEBDH@Z 0000000180005c80 f i detection_win.obj
 0001:00004d10       ?Reallocate@?$CSimpleStringT@D$0A@@ATL@@AEAAXH@Z 0000000180005d10 f i detection_win.obj
 0001:00004d60       ?Fork@?$CSimpleStringT@D$0A@@ATL@@AEAAXH@Z 0000000180005d60 f i detection_win.obj
 0001:00004e20       ?_Xran@?$_String_val@U?$_Simple_types@D@std@@@std@@SAXXZ 0000000180005e20 f i detection_win.obj
 0001:00004e40       ??$_snprintf_s@$0EA@@@YAHAEAY0EA@D_KPEBDZZ 0000000180005e40 f i detection_win.obj
 0001:00004ea4       ??0bad_alloc@std@@QEAA@AEBV01@@Z 0000000180005ea4 f i libcpmt:xthrow.obj
 0001:00004ee4       ??0bad_alloc@std@@QEAA@XZ  0000000180005ee4 f i libcpmt:xthrow.obj
 0001:00004f04       ??0exception@std@@QEAA@AEBV01@@Z 0000000180005f04 f i libcpmt:xthrow.obj
 0001:00004f3c       ??0length_error@std@@QEAA@AEBV01@@Z 0000000180005f3c f i libcpmt:xthrow.obj
 0001:00004f7c       ??0length_error@std@@QEAA@PEBD@Z 0000000180005f7c f i libcpmt:xthrow.obj
 0001:00004fc8       ??0logic_error@std@@QEAA@AEBV01@@Z 0000000180005fc8 f i libcpmt:xthrow.obj
 0001:00005008       ??0out_of_range@std@@QEAA@AEBV01@@Z 0000000180006008 f i libcpmt:xthrow.obj
 0001:00005048       ??0out_of_range@std@@QEAA@PEBD@Z 0000000180006048 f i libcpmt:xthrow.obj
 0001:00005094       ??1bad_alloc@std@@UEAA@XZ  0000000180006094 f i libcpmt:xthrow.obj
 0001:00005094       ??1bad_array_new_length@std@@UEAA@XZ 0000000180006094 f i LIBCMT:throw_bad_alloc.obj
 0001:00005094       ??1out_of_range@std@@UEAA@XZ 0000000180006094 f i libcpmt:xthrow.obj
 0001:00005094       ??1length_error@std@@UEAA@XZ 0000000180006094 f i libcpmt:xthrow.obj
 0001:00005094       ??1bad_exception@std@@UEAA@XZ 0000000180006094 f i libvcruntime:frame.obj
 0001:000050a8       ??_Ebad_array_new_length@std@@UEAAPEAXI@Z 00000001800060a8 f i LIBCMT:throw_bad_alloc.obj
 0001:000050a8       ??_Ebad_exception@std@@UEAAPEAXI@Z 00000001800060a8 f i libvcruntime:frame.obj
 0001:000050a8       ??_Ebad_alloc@std@@UEAAPEAXI@Z 00000001800060a8 f i libcpmt:xthrow.obj
 0001:000050a8       ??_Elogic_error@std@@UEAAPEAXI@Z 00000001800060a8 f i libcpmt:xthrow.obj
 0001:000050a8       ??_Glogic_error@std@@UEAAPEAXI@Z 00000001800060a8 f i libcpmt:xthrow.obj
 0001:000050a8       ??_Gbad_array_new_length@std@@UEAAPEAXI@Z 00000001800060a8 f i LIBCMT:throw_bad_alloc.obj
 0001:000050a8       ??_Gout_of_range@std@@UEAAPEAXI@Z 00000001800060a8 f i libcpmt:xthrow.obj
 0001:000050a8       ??_Elength_error@std@@UEAAPEAXI@Z 00000001800060a8 f i libcpmt:xthrow.obj
 0001:000050a8       ??_Eexception@std@@UEAAPEAXI@Z 00000001800060a8 f i libcpmt:xthrow.obj
 0001:000050a8       ??_Gbad_exception@std@@UEAAPEAXI@Z 00000001800060a8 f i libvcruntime:frame.obj
 0001:000050a8       ??_Eout_of_range@std@@UEAAPEAXI@Z 00000001800060a8 f i libcpmt:xthrow.obj
 0001:000050a8       ??_Gexception@std@@UEAAPEAXI@Z 00000001800060a8 f i libcpmt:xthrow.obj
 0001:000050a8       ??_Glength_error@std@@UEAAPEAXI@Z 00000001800060a8 f i libcpmt:xthrow.obj
 0001:000050a8       ??_Gbad_alloc@std@@UEAAPEAXI@Z 00000001800060a8 f i libcpmt:xthrow.obj
 0001:000050ec       ?_Xlength_error@std@@YAXPEBD@Z 00000001800060ec f   libcpmt:xthrow.obj
 0001:00005110       ?_Xout_of_range@std@@YAXPEBD@Z 0000000180006110 f   libcpmt:xthrow.obj
 0001:00005134       ?what@exception@std@@UEBAPEBDXZ 0000000180006134 f i libcpmt:xthrow.obj
 0001:00005160       __security_check_cookie    0000000180006160 f   LIBCMT:_amdsecgs_.obj
 0001:00005184       ??2@YAPEAX_K@Z             0000000180006184 f   LIBCMT:new_scalar.obj
 0001:000051c0       ??3@YAXPEAX@Z              00000001800061c0 f   LIBCMT:delete_scalar.obj
 0001:000051c8       ??3@YAXPEAX_K@Z            00000001800061c8 f   LIBCMT:delete_scalar_size.obj
 0001:000051d0       __scrt_acquire_startup_lock 00000001800061d0 f   LIBCMT:utility.obj
 0001:0000520c       __scrt_dllmain_after_initialize_c 000000018000620c f   LIBCMT:utility.obj
 0001:00005240       __scrt_dllmain_before_initialize_c 0000000180006240 f   LIBCMT:utility.obj
 0001:00005258       __scrt_dllmain_crt_thread_attach 0000000180006258 f   LIBCMT:utility.obj
 0001:00005280       __scrt_dllmain_crt_thread_detach 0000000180006280 f   LIBCMT:utility.obj
 0001:00005298       __scrt_dllmain_exception_filter 0000000180006298 f   LIBCMT:utility.obj
 0001:000052f8       __scrt_dllmain_uninitialize_c 00000001800062f8 f   LIBCMT:utility.obj
 0001:00005328       __scrt_dllmain_uninitialize_critical 0000000180006328 f   LIBCMT:utility.obj
 0001:0000533c       __scrt_initialize_crt      000000018000633c f   LIBCMT:utility.obj
 0001:00005388       __scrt_initialize_onexit_tables 0000000180006388 f   LIBCMT:utility.obj
 0001:00005464       __scrt_is_nonwritable_in_current_image 0000000180006464 f   LIBCMT:utility.obj
 0001:00005500       __scrt_release_startup_lock 0000000180006500 f   LIBCMT:utility.obj
 0001:00005524       __scrt_uninitialize_crt    0000000180006524 f   LIBCMT:utility.obj
 0001:00005550       _onexit                    0000000180006550 f   LIBCMT:utility.obj
 0001:000055a0       atexit                     00000001800065a0 f   LIBCMT:utility.obj
 0001:000055b8       ??_U@YAPEAX_K@Z            00000001800065b8 f   LIBCMT:new_array.obj
 0001:000058e0       _DllMainCRTStartup         00000001800068e0 f   LIBCMT:dll_dllmain.obj
 0001:00005920       ??_Etype_info@@UEAAPEAXI@Z 0000000180006920 f i LIBCMT:std_type_info_static.obj
 0001:00005920       ??_Gtype_info@@UEAAPEAXI@Z 0000000180006920 f i LIBCMT:std_type_info_static.obj
 0001:0000594c       __raise_securityfailure    000000018000694c f   LIBCMT:gs_report.obj
 0001:00005980       __report_gsfailure         0000000180006980 f   LIBCMT:gs_report.obj
 0001:00005a54       __report_rangecheckfailure 0000000180006a54 f   LIBCMT:gs_report.obj
 0001:00005a68       __report_securityfailure   0000000180006a68 f   LIBCMT:gs_report.obj
 0001:00005be8       ??0bad_array_new_length@std@@QEAA@AEBV01@@Z 0000000180006be8 f i LIBCMT:throw_bad_alloc.obj
 0001:00005c28       ??0bad_array_new_length@std@@QEAA@XZ 0000000180006c28 f i LIBCMT:throw_bad_alloc.obj
 0001:00005c48       ?__scrt_throw_std_bad_alloc@@YAXXZ 0000000180006c48 f   LIBCMT:throw_bad_alloc.obj
 0001:00005c68       ?__scrt_throw_std_bad_array_new_length@@YAXXZ 0000000180006c68 f   LIBCMT:throw_bad_alloc.obj
 0001:00005c88       __isa_available_init       0000000180006c88 f   LIBCMT:_cpu_disp_.obj
 0001:00005e44       DllMain                    0000000180006e44 f   LIBCMT:dll_dllmain_stub.obj
 0001:00005e44       _get_startup_argv_mode     0000000180006e44 f   LIBCMT:argv_mode.obj
 0001:00005e4c       __scrt_is_ucrt_dll_in_use  0000000180006e4c f   LIBCMT:ucrt_detection.obj
 0001:00005e58       __crt_debugger_hook        0000000180006e58 f   LIBCMT:utility_desktop.obj
 0001:00005e60       __scrt_fastfail            0000000180006e60 f   LIBCMT:utility_desktop.obj
 0001:00005fac       _guard_check_icall_nop     0000000180006fac f i LIBCMT:guard_support.obj
 0001:00005fb0       __security_init_cookie     0000000180006fb0 f   LIBCMT:gs_support.obj
 0001:00006060       ?__scrt_initialize_type_info@@YAXXZ 0000000180007060 f   LIBCMT:tncleanup.obj
 0001:00006070       ?__scrt_uninitialize_type_info@@YAXXZ 0000000180007070 f   LIBCMT:tncleanup.obj
 0001:0000607c       __local_stdio_scanf_options 000000018000707c f i LIBCMT:default_local_stdio_options.obj
 0001:00006084       __scrt_initialize_default_local_stdio_options 0000000180007084 f   LIBCMT:default_local_stdio_options.obj
 0001:000060a0       __scrt_get_dyn_tls_init_callback 00000001800070a0 f   LIBCMT:dyn_tls_init.obj
 0001:000060a8       _RTC_Initialize            00000001800070a8 f   LIBCMT:_initsect_.obj
 0001:000060e4       _RTC_Terminate             00000001800070e4 f   LIBCMT:_initsect_.obj
 0001:00006120       ??0CAtlBaseModule@ATL@@QEAA@XZ 0000000180007120 f   atls:atlbase.obj
 0001:000061c8       ??1CAtlBaseModule@ATL@@QEAA@XZ 00000001800071c8 f   atls:atlbase.obj
 0001:000061fc       ?GetHInstanceAt@CAtlBaseModule@ATL@@QEAAPEAUHINSTANCE__@@H@Z 00000001800071fc f   atls:atlbase.obj
 0001:00006274       strstr                     0000000180007274 f   libvcruntime:strstr.obj
 0001:00006474       __std_exception_copy       0000000180007474 f   libvcruntime:std_exception.obj
 0001:00006504       __std_exception_destroy    0000000180007504 f   libvcruntime:std_exception.obj
 0001:0000652c       _CxxThrowException         000000018000752c f   libvcruntime:throw.obj
 0001:000065ec       __vcrt_initialize          00000001800075ec f   libvcruntime:initialization.obj
 0001:00006620       __vcrt_thread_attach       0000000180007620 f   libvcruntime:initialization.obj
 0001:00006634       __vcrt_thread_detach       0000000180007634 f   libvcruntime:initialization.obj
 0001:00006648       __vcrt_uninitialize        0000000180007648 f   libvcruntime:initialization.obj
 0001:00006668       __vcrt_uninitialize_critical 0000000180007668 f   libvcruntime:initialization.obj
 0001:00006678       __C_specific_handler       0000000180007678 f   libvcruntime:_riscchandler_.obj
 0001:000068a0       memset                     00000001800078a0 f   libvcruntime:memset.obj
 0001:00006a50       __std_type_info_compare    0000000180007a50 f   libvcruntime:std_type_info.obj
 0001:00006a78       __std_type_info_destroy_list 0000000180007a78 f   libvcruntime:std_type_info.obj
 0001:00006ac0       memcpy                     0000000180007ac0 f   libvcruntime:memcpy.obj
 0001:00006ac0       memmove                    0000000180007ac0 f   libvcruntime:memcpy.obj
 0001:00006f08       __vcrt_freefls             0000000180007f08 f   libvcruntime:per_thread_data.obj
 0001:00006f28       __vcrt_freeptd             0000000180007f28 f   libvcruntime:per_thread_data.obj
 0001:00006f78       __vcrt_getptd              0000000180007f78 f   libvcruntime:per_thread_data.obj
 0001:00006f94       __vcrt_getptd_noexit       0000000180007f94 f   libvcruntime:per_thread_data.obj
 0001:0000704c       __vcrt_initialize_ptd      000000018000804c f   libvcruntime:per_thread_data.obj
 0001:0000709c       __vcrt_uninitialize_ptd    000000018000809c f   libvcruntime:per_thread_data.obj
 0001:000070c0       __vcrt_initialize_locks    00000001800080c0 f   libvcruntime:locks.obj
 0001:00007108       __vcrt_uninitialize_locks  0000000180008108 f   libvcruntime:locks.obj
 0001:00007318       __vcrt_FlsAlloc            0000000180008318 f   libvcruntime:winapi_downlevel.obj
 0001:00007360       __vcrt_FlsFree             0000000180008360 f   libvcruntime:winapi_downlevel.obj
 0001:000073a8       __vcrt_FlsGetValue         00000001800083a8 f   libvcruntime:winapi_downlevel.obj
 0001:000073f0       __vcrt_FlsSetValue         00000001800083f0 f   libvcruntime:winapi_downlevel.obj
 0001:00007444       __vcrt_InitializeCriticalSectionEx 0000000180008444 f   libvcruntime:winapi_downlevel.obj
 0001:000074a8       __vcrt_initialize_winapi_thunks 00000001800084a8 f   libvcruntime:winapi_downlevel.obj
 0001:000074d8       __vcrt_uninitialize_winapi_thunks 00000001800084d8 f   libvcruntime:winapi_downlevel.obj
 0001:00007518       __vcrt_initialize_pure_virtual_call_handler 0000000180008518 f   libvcruntime:purevirt_data.obj
 0001:00007540       _local_unwind              0000000180008540 f   libvcruntime:_jmpuwind_.obj
 0001:00007570       _NLG_Notify                0000000180008570 f   libvcruntime:_jmpuwind_.obj
 0001:00007590       __NLG_Dispatch2            0000000180008590 f   libvcruntime:_jmpuwind_.obj
 0001:000075a0       __NLG_Return2              00000001800085a0 f   libvcruntime:_jmpuwind_.obj
 0001:000075a4       __except_validate_context_record 00000001800085a4 f   libvcruntime:jbcxrval.obj
 0001:000075dc       ?_ExecutionInCatch@@YAHPEAU_xDISPATCHER_CONTEXT@@PEBU_s_FuncInfo@@@Z 00000001800085dc f   libvcruntime:risctrnsctrl.obj
 0001:00007650       ?_GetEstablisherFrame@@YAPEA_KPEA_KPEAU_xDISPATCHER_CONTEXT@@PEBU_s_FuncInfo@@0@Z 0000000180008650 f   libvcruntime:risctrnsctrl.obj
 0001:0000771c       ?_GetRangeOfTrysToCheck@@YAPEBU_s_TryBlockMapEntry@@PEA_KPEBU_s_FuncInfo@@HHPEAI2PEAU_xDISPATCHER_CONTEXT@@@Z 000000018000871c f   libvcruntime:risctrnsctrl.obj
 0001:00007848       ?__FrameUnwindToEmptyState@@YAXPEA_KPEAU_xDISPATCHER_CONTEXT@@PEBU_s_FuncInfo@@@Z 0000000180008848 f   libvcruntime:risctrnsctrl.obj
 0001:000078dc       _CallSETranslator          00000001800088dc f   libvcruntime:risctrnsctrl.obj
 0001:00007930       _CreateFrameInfo           0000000180008930 f   libvcruntime:risctrnsctrl.obj
 0001:0000796c       _FindAndUnlinkFrame        000000018000896c f   libvcruntime:risctrnsctrl.obj
 0001:000079c0       _GetImageBase              00000001800089c0 f   libvcruntime:risctrnsctrl.obj
 0001:000079d4       _GetThrowImageBase         00000001800089d4 f   libvcruntime:risctrnsctrl.obj
 0001:000079e8       _SetImageBase              00000001800089e8 f   libvcruntime:risctrnsctrl.obj
 0001:00007a00       _SetThrowImageBase         0000000180008a00 f   libvcruntime:risctrnsctrl.obj
 0001:00007a18       _UnwindNestedFrames        0000000180008a18 f   libvcruntime:risctrnsctrl.obj
 0001:00007b3c       __CxxFrameHandler3         0000000180008b3c f   libvcruntime:risctrnsctrl.obj
 0001:00007bbc       ?__GetCurrentState@@YAHPEA_KPEAU_xDISPATCHER_CONTEXT@@PEBU_s_FuncInfo@@@Z 0000000180008bbc f   libvcruntime:riscehstate.obj
 0001:00007be4       ?__GetUnwindTryBlock@@YAHPEA_KPEAU_xDISPATCHER_CONTEXT@@PEBU_s_FuncInfo@@@Z 0000000180008be4 f   libvcruntime:riscehstate.obj
 0001:00007c10       ?__SetState@@YAXPEA_KPEAU_xDISPATCHER_CONTEXT@@PEBU_s_FuncInfo@@H@Z 0000000180008c10 f   libvcruntime:riscehstate.obj
 0001:00007c1c       ?__SetUnwindTryBlock@@YAXPEA_KPEAU_xDISPATCHER_CONTEXT@@PEBU_s_FuncInfo@@H@Z 0000000180008c1c f   libvcruntime:riscehstate.obj
 0001:00007c58       ?__StateFromControlPc@@YAHPEBU_s_FuncInfo@@PEAU_xDISPATCHER_CONTEXT@@@Z 0000000180008c58 f   libvcruntime:riscehstate.obj
 0001:00007c60       ?__StateFromIp@@YAHPEBU_s_FuncInfo@@PEAU_xDISPATCHER_CONTEXT@@_K@Z 0000000180008c60 f   libvcruntime:riscehstate.obj
 0001:00007cc8       ??0bad_exception@std@@QEAA@AEBV01@@Z 0000000180008cc8 f i libvcruntime:frame.obj
 0001:00007d08       ??0bad_exception@std@@QEAA@XZ 0000000180008d08 f i libvcruntime:frame.obj
 0001:00008650       ?_CallMemberFunction1@@YAXQEAX00@Z 0000000180009650 f i libvcruntime:frame.obj
 0001:0000865c       ?_CallMemberFunction2@@YAXQEAX00H@Z 000000018000965c f i libvcruntime:frame.obj
 0001:0000866c       __BuildCatchObject         000000018000966c f   libvcruntime:frame.obj
 0001:0000872c       __BuildCatchObjectHelper   000000018000972c f   libvcruntime:frame.obj
 0001:0000892c       __CxxCallCatchBlock        000000018000992c f   libvcruntime:frame.obj
 0001:00008b18       __FrameUnwindToState       0000000180009b18 f   libvcruntime:frame.obj
 0001:00008cac       __InternalCxxFrameHandler  0000000180009cac f   libvcruntime:frame.obj
 0001:00008ef0       __TypeMatch                0000000180009ef0 f   libvcruntime:frame.obj
 0001:00009050       _CallSettingFrame          000000018000a050 f   libvcruntime:handlers.obj
 0001:00009090       __DestructExceptionObject  000000018000a090 f   libvcruntime:ehhelpers.obj
 0001:00009104       ?_CallMemberFunction0@@YAXQEAX0@Z 000000018000a104 f i libvcruntime:ehhelpers.obj
 0001:00009108       _IsExceptionObjectToBeDestroyed 000000018000a108 f   libvcruntime:ehhelpers.obj
 0001:00009138       __AdjustPointer            000000018000a138 f   libvcruntime:ehhelpers.obj
 0001:0000915c       __FrameUnwindFilter        000000018000a15c f   libvcruntime:ehhelpers.obj
 0001:000091a8       __acrt_call_reportfault    000000018000a1a8 f   libucrt:invalid_parameter.obj
 0001:00009304       __acrt_initialize_invalid_parameter_handler 000000018000a304 f   libucrt:invalid_parameter.obj
 0001:0000930c       _invalid_parameter         000000018000a30c f   libucrt:invalid_parameter.obj
 0001:000093bc       _invalid_parameter_noinfo  000000018000a3bc f   libucrt:invalid_parameter.obj
 0001:000093dc       _invalid_parameter_noinfo_noreturn 000000018000a3dc f   libucrt:invalid_parameter.obj
 0001:0000940c       _invoke_watson             000000018000a40c f   libucrt:invalid_parameter.obj
 0001:000096d4       __acrt_initialize_thread_local_exit_callback 000000018000a6d4 f   libucrt:exit.obj
 0001:000096dc       _cexit                     000000018000a6dc f   libucrt:exit.obj
 0001:000096ec       _exit                      000000018000a6ec f   libucrt:exit.obj
 0001:000096f8       _is_c_termination_complete 000000018000a6f8 f   libucrt:exit.obj
 0001:00009700       exit                       000000018000a700 f   libucrt:exit.obj
 0001:0000970c       _mbsinc                    000000018000a70c f   libucrt:mbsinc.obj
 0001:00009750       ??0_LocaleUpdate@@QEAA@QEAU__crt_locale_pointers@@@Z 000000018000a750 f i libucrt:mbscmp.obj
 0001:000097ec       ??1_LocaleUpdate@@QEAA@XZ  000000018000a7ec f i libucrt:mbscmp.obj
 0001:00009800       _mbscmp                    000000018000a800 f   libucrt:mbscmp.obj
 0001:00009808       _mbscmp_l                  000000018000a808 f   libucrt:mbscmp.obj
 0001:00009998       _tolower_l                 000000018000a998 f   libucrt:tolower_toupper.obj
 0001:00009ad8       _toupper_l                 000000018000aad8 f   libucrt:tolower_toupper.obj
 0001:00009c18       tolower                    000000018000ac18 f   libucrt:tolower_toupper.obj
 0001:00009c44       toupper                    000000018000ac44 f   libucrt:tolower_toupper.obj
 0001:00009c70       __acrt_initialize_stdio    000000018000ac70 f   libucrt:_file.obj
 0001:00009d90       __acrt_iob_func            000000018000ad90 f   libucrt:_file.obj
 0001:00009da4       __acrt_uninitialize_stdio  000000018000ada4 f   libucrt:_file.obj
 0001:00009e00       _lock_file                 000000018000ae00 f   libucrt:_file.obj
 0001:00009e0c       _unlock_file               000000018000ae0c f   libucrt:_file.obj
 0001:00009e18       _mbsrchr                   000000018000ae18 f   libucrt:mbsrchr.obj
 0001:00009e20       _mbsrchr_l                 000000018000ae20 f   libucrt:mbsrchr.obj
 0001:0000a0ec       ??$ensure_buffer_is_big_enough@D@formatting_buffer@__crt_stdio_output@@QEAA_N_K@Z 000000018000b0ec f i libucrt:output.obj
 0001:0000a194       ??$type_case_integer_parse_into_buffer@I@?$output_processor@DV?$string_output_adapter@D@__crt_stdio_output@@V?$format_validation_base@DV?$string_output_adapter@D@__crt_stdio_output@@@2@@__crt_stdio_output@@AEAAXII_N@Z 000000018000b194 f i libucrt:output.obj
 0001:0000a194       ??$type_case_integer_parse_into_buffer@I@?$output_processor@DV?$stream_output_adapter@D@__crt_stdio_output@@V?$standard_base@DV?$stream_output_adapter@D@__crt_stdio_output@@@2@@__crt_stdio_output@@AEAAXII_N@Z 000000018000b194 f i libucrt:output.obj
 0001:0000a224       ??$type_case_integer_parse_into_buffer@_K@?$output_processor@DV?$string_output_adapter@D@__crt_stdio_output@@V?$format_validation_base@DV?$string_output_adapter@D@__crt_stdio_output@@@2@@__crt_stdio_output@@AEAAX_KI_N@Z 000000018000b224 f i libucrt:output.obj
 0001:0000a224       ??$type_case_integer_parse_into_buffer@_K@?$output_processor@DV?$stream_output_adapter@D@__crt_stdio_output@@V?$standard_base@DV?$stream_output_adapter@D@__crt_stdio_output@@@2@@__crt_stdio_output@@AEAAX_KI_N@Z 000000018000b224 f i libucrt:output.obj
 0001:0000a2b8       ??$write_multiple_characters@V?$stream_output_adapter@D@__crt_stdio_output@@D@__crt_stdio_output@@YAXAEBV?$stream_output_adapter@D@0@DHQEAH@Z 000000018000b2b8 f i libucrt:output.obj
 0001:0000a344       ??$write_multiple_characters@V?$string_output_adapter@D@__crt_stdio_output@@D@__crt_stdio_output@@YAXAEBV?$string_output_adapter@D@0@DHQEAH@Z 000000018000b344 f i libucrt:output.obj
 0001:0000a4ec       ?crop_zeroes@__crt_stdio_output@@YAXPEADQEAU__crt_locale_pointers@@@Z 000000018000b4ec f i libucrt:output.obj
 0001:0000a558       ?force_decimal_point@__crt_stdio_output@@YAXPEADQEAU__crt_locale_pointers@@@Z 000000018000b558 f i libucrt:output.obj
 0001:0000a5c8       ?parse_int_from_format_string@?$output_processor@DV?$string_output_adapter@D@__crt_stdio_output@@V?$format_validation_base@DV?$string_output_adapter@D@__crt_stdio_output@@@2@@__crt_stdio_output@@AEAA_NQEAH@Z 000000018000b5c8 f i libucrt:output.obj
 0001:0000a5c8       ?parse_int_from_format_string@?$output_processor@DV?$stream_output_adapter@D@__crt_stdio_output@@V?$standard_base@DV?$stream_output_adapter@D@__crt_stdio_output@@@2@@__crt_stdio_output@@AEAA_NQEAH@Z 000000018000b5c8 f i libucrt:output.obj
 0001:0000a66c       ?process@?$output_processor@DV?$stream_output_adapter@D@__crt_stdio_output@@V?$standard_base@DV?$stream_output_adapter@D@__crt_stdio_output@@@2@@__crt_stdio_output@@QEAAHXZ 000000018000b66c f i libucrt:output.obj
 0001:0000a880       ?process@?$output_processor@DV?$string_output_adapter@D@__crt_stdio_output@@V?$format_validation_base@DV?$string_output_adapter@D@__crt_stdio_output@@@2@@__crt_stdio_output@@QEAAHXZ 000000018000b880 f i libucrt:output.obj
 0001:0000aa94       ?state_case_normal@?$output_processor@DV?$stream_output_adapter@D@__crt_stdio_output@@V?$standard_base@DV?$stream_output_adapter@D@__crt_stdio_output@@@2@@__crt_stdio_output@@AEAA_NXZ 000000018000ba94 f i libucrt:output.obj
 0001:0000ab04       ?state_case_normal@?$output_processor@DV?$string_output_adapter@D@__crt_stdio_output@@V?$format_validation_base@DV?$string_output_adapter@D@__crt_stdio_output@@@2@@__crt_stdio_output@@AEAA_NXZ 000000018000bb04 f i libucrt:output.obj
 0001:0000ab78       ?state_case_normal_tchar@?$output_processor@DV?$stream_output_adapter@D@__crt_stdio_output@@V?$standard_base@DV?$stream_output_adapter@D@__crt_stdio_output@@@2@@__crt_stdio_output@@AEAA_ND@Z 000000018000bb78 f i libucrt:output.obj
 0001:0000ac14       ?state_case_normal_tchar@?$output_processor@DV?$string_output_adapter@D@__crt_stdio_output@@V?$format_validation_base@DV?$string_output_adapter@D@__crt_stdio_output@@@2@@__crt_stdio_output@@AEAA_ND@Z 000000018000bc14 f i libucrt:output.obj
 0001:0000acac       ?state_case_size@?$output_processor@DV?$stream_output_adapter@D@__crt_stdio_output@@V?$standard_base@DV?$stream_output_adapter@D@__crt_stdio_output@@@2@@__crt_stdio_output@@AEAA_NXZ 000000018000bcac f i libucrt:output.obj
 0001:0000ae20       ?state_case_size@?$output_processor@DV?$string_output_adapter@D@__crt_stdio_output@@V?$format_validation_base@DV?$string_output_adapter@D@__crt_stdio_output@@@2@@__crt_stdio_output@@AEAA_NXZ 000000018000be20 f i libucrt:output.obj
 0001:0000af94       ?state_case_type@?$output_processor@DV?$stream_output_adapter@D@__crt_stdio_output@@V?$standard_base@DV?$stream_output_adapter@D@__crt_stdio_output@@@2@@__crt_stdio_output@@AEAA_NXZ 000000018000bf94 f i libucrt:output.obj
 0001:0000b224       ?state_case_type@?$output_processor@DV?$string_output_adapter@D@__crt_stdio_output@@V?$format_validation_base@DV?$string_output_adapter@D@__crt_stdio_output@@@2@@__crt_stdio_output@@AEAA_NXZ 000000018000c224 f i libucrt:output.obj
 0001:0000b490       ?type_case_Z@?$output_processor@DV?$stream_output_adapter@D@__crt_stdio_output@@V?$standard_base@DV?$stream_output_adapter@D@__crt_stdio_output@@@2@@__crt_stdio_output@@AEAA_NXZ 000000018000c490 f i libucrt:output.obj
 0001:0000b490       ?type_case_Z@?$output_processor@DV?$string_output_adapter@D@__crt_stdio_output@@V?$format_validation_base@DV?$string_output_adapter@D@__crt_stdio_output@@@2@@__crt_stdio_output@@AEAA_NXZ 000000018000c490 f i libucrt:output.obj
 0001:0000b508       ?type_case_a@?$output_processor@DV?$string_output_adapter@D@__crt_stdio_output@@V?$format_validation_base@DV?$string_output_adapter@D@__crt_stdio_output@@@2@@__crt_stdio_output@@AEAA_NXZ 000000018000c508 f i libucrt:output.obj
 0001:0000b508       ?type_case_a@?$output_processor@DV?$stream_output_adapter@D@__crt_stdio_output@@V?$standard_base@DV?$stream_output_adapter@D@__crt_stdio_output@@@2@@__crt_stdio_output@@AEAA_NXZ 000000018000c508 f i libucrt:output.obj
 0001:0000b6c4       ?type_case_c_tchar@?$output_processor@DV?$stream_output_adapter@D@__crt_stdio_output@@V?$standard_base@DV?$stream_output_adapter@D@__crt_stdio_output@@@2@@__crt_stdio_output@@AEAA_ND@Z 000000018000c6c4 f i libucrt:output.obj
 0001:0000b6c4       ?type_case_c_tchar@?$output_processor@DV?$string_output_adapter@D@__crt_stdio_output@@V?$format_validation_base@DV?$string_output_adapter@D@__crt_stdio_output@@@2@@__crt_stdio_output@@AEAA_ND@Z 000000018000c6c4 f i libucrt:output.obj
 0001:0000b788       ?type_case_integer@?$output_processor@DV?$stream_output_adapter@D@__crt_stdio_output@@V?$standard_base@DV?$stream_output_adapter@D@__crt_stdio_output@@@2@@__crt_stdio_output@@AEAA_NI_N@Z 000000018000c788 f i libucrt:output.obj
 0001:0000b788       ?type_case_integer@?$output_processor@DV?$string_output_adapter@D@__crt_stdio_output@@V?$format_validation_base@DV?$string_output_adapter@D@__crt_stdio_output@@@2@@__crt_stdio_output@@AEAA_NI_N@Z 000000018000c788 f i libucrt:output.obj
 0001:0000b950       ?type_case_n@?$output_processor@DV?$string_output_adapter@D@__crt_stdio_output@@V?$format_validation_base@DV?$string_output_adapter@D@__crt_stdio_output@@@2@@__crt_stdio_output@@AEAA_NXZ 000000018000c950 f i libucrt:output.obj
 0001:0000b950       ?type_case_n@?$output_processor@DV?$stream_output_adapter@D@__crt_stdio_output@@V?$standard_base@DV?$stream_output_adapter@D@__crt_stdio_output@@@2@@__crt_stdio_output@@AEAA_NXZ 000000018000c950 f i libucrt:output.obj
 0001:0000ba2c       ?type_case_s@?$output_processor@DV?$string_output_adapter@D@__crt_stdio_output@@V?$format_validation_base@DV?$string_output_adapter@D@__crt_stdio_output@@@2@@__crt_stdio_output@@AEAA_NXZ 000000018000ca2c f i libucrt:output.obj
 0001:0000ba2c       ?type_case_s@?$output_processor@DV?$stream_output_adapter@D@__crt_stdio_output@@V?$standard_base@DV?$stream_output_adapter@D@__crt_stdio_output@@@2@@__crt_stdio_output@@AEAA_NXZ 000000018000ca2c f i libucrt:output.obj
 0001:0000bac4       ?validate_stream_is_ansi_if_required@?$__acrt_stdio_char_traits@D@@SA_NQEAU_iobuf@@@Z 000000018000cac4 f i libucrt:output.obj
 0001:0000bb58       ?write_stored_string_tchar@?$output_processor@DV?$stream_output_adapter@D@__crt_stdio_output@@V?$standard_base@DV?$stream_output_adapter@D@__crt_stdio_output@@@2@@__crt_stdio_output@@AEAA_ND@Z 000000018000cb58 f i libucrt:output.obj
 0001:0000bc7c       ?write_stored_string_tchar@?$output_processor@DV?$string_output_adapter@D@__crt_stdio_output@@V?$format_validation_base@DV?$string_output_adapter@D@__crt_stdio_output@@@2@@__crt_stdio_output@@AEAA_ND@Z 000000018000cc7c f i libucrt:output.obj
 0001:0000bd54       ?write_string@?$string_output_adapter@D@__crt_stdio_output@@QEBAXQEBDHQEAHAEAV__crt_deferred_errno_cache@@@Z 000000018000cd54 f i libucrt:output.obj
 0001:0000bdf8       ?write_string_impl@?$output_adapter_common@DV?$stream_output_adapter@D@__crt_stdio_output@@@__crt_stdio_output@@IEBAXQEBDHQEAHAEAV__crt_deferred_errno_cache@@@Z 000000018000cdf8 f i libucrt:output.obj
 0001:0000bef0       __stdio_common_vfprintf    000000018000cef0 f   libucrt:output.obj
 0001:0000bf7c       __stdio_common_vsnprintf_s 000000018000cf7c f   libucrt:output.obj
 0001:0000c0b0       _mbsupr_s                  000000018000d0b0 f   libucrt:mbsupr.obj
 0001:0000c0b8       _mbsupr_s_l                000000018000d0b8 f   libucrt:mbsupr.obj
 0001:0000c218       _mbschr                    000000018000d218 f   libucrt:mbschr.obj
 0001:0000c220       _mbschr_l                  000000018000d220 f   libucrt:mbschr.obj
 0001:0000c2e4       __acrt_errno_from_os_error 000000018000d2e4 f   libucrt:errno.obj
 0001:0000c32c       __acrt_errno_map_os_error  000000018000d32c f   libucrt:errno.obj
 0001:0000c37c       __doserrno                 000000018000d37c f   libucrt:errno.obj
 0001:0000c39c       _errno                     000000018000d39c f   libucrt:errno.obj
 0001:0000c3bc       ??$parse_integer@KV?$c_string_character_source@D@__crt_strtox@@@__crt_strtox@@YAKQEAU__crt_locale_pointers@@V?$c_string_character_source@D@0@H_N@Z 000000018000d3bc f i libucrt:strtox.obj
 0001:0000c6f8       strtol                     000000018000d6f8 f   libucrt:strtox.obj
 0001:0000c724       free                       000000018000d724 f   libucrt:free.obj
 0001:0000c738       __acrt_initialize_new_handler 000000018000d738 f   libucrt:new_handler.obj
 0001:0000c740       _callnewh                  000000018000d740 f   libucrt:new_handler.obj
 0001:0000c770       _query_new_handler         000000018000d770 f   libucrt:new_handler.obj
 0001:0000c7a4       malloc                     000000018000d7a4 f   libucrt:malloc.obj
 0001:0000c7ac       _seh_filter_dll            000000018000d7ac f   libucrt:exception_filter.obj
 0001:0000c7c0       _seh_filter_exe            000000018000d7c0 f   libucrt:exception_filter.obj
 0001:0000cafc       __acrt_allocate_buffer_for_argv 000000018000dafc f   libucrt:argv_parsing.obj
 0001:0000cb5c       _configure_narrow_argv     000000018000db5c f   libucrt:argv_parsing.obj
 0001:0000ced4       __dcrt_uninitialize_environments_nolock 000000018000ded4 f   libucrt:environment_initialization.obj
 0001:0000cf0c       _initialize_narrow_environment 000000018000df0c f   libucrt:environment_initialization.obj
 0001:0000d29c       _crt_atexit                000000018000e29c f   libucrt:onexit.obj
 0001:0000d2ac       _execute_onexit_table      000000018000e2ac f   libucrt:onexit.obj
 0001:0000d2e8       _initialize_onexit_table   000000018000e2e8 f   libucrt:onexit.obj
 0001:0000d328       _register_onexit_function  000000018000e328 f   libucrt:onexit.obj
 0001:0000d3a8       __acrt_uninitialize_command_line 000000018000e3a8 f   libucrt:argv_data.obj
 0001:0000d4b4       __acrt_initialize          000000018000e4b4 f   libucrt:initialization.obj
 0001:0000d4c8       __acrt_thread_attach       000000018000e4c8 f   libucrt:initialization.obj
 0001:0000d4dc       __acrt_thread_detach       000000018000e4dc f   libucrt:initialization.obj
 0001:0000d4ec       __acrt_uninitialize        000000018000e4ec f   libucrt:initialization.obj
 0001:0000d524       __acrt_uninitialize_critical 000000018000e524 f   libucrt:initialization.obj
 0001:0000d534       _initterm                  000000018000e534 f   libucrt:initterm.obj
 0001:0000d598       _initterm_e                000000018000e598 f   libucrt:initterm.obj
 0001:0000d5d8       terminate                  000000018000e5d8 f   libucrt:terminate.obj
 0001:0000d5f8       _recalloc                  000000018000e5f8 f   libucrt:recalloc.obj
 0001:0000d600       _recalloc_base             000000018000e600 f   libucrt:recalloc.obj
 0001:0000d698       strcpy_s                   000000018000e698 f   libucrt:strcpy_s.obj
 0001:0000d708       abort                      000000018000e708 f   libucrt:abort.obj
 0001:0000d760       calloc                     000000018000e760 f   libucrt:calloc.obj
 0001:0000d768       wcsncmp                    000000018000e768 f   libucrt:wcsncmp.obj
 0001:0000d7b0       strncmp                    000000018000e7b0 f   libucrt:strncmp.obj
 0001:0000dba8       __acrt_freeptd             000000018000eba8 f   libucrt:per_thread_data.obj
 0001:0000dbec       __acrt_getptd              000000018000ebec f   libucrt:per_thread_data.obj
 0001:0000dcb0       __acrt_getptd_head         000000018000ecb0 f   libucrt:per_thread_data.obj
 0001:0000dd58       __acrt_getptd_noexit       000000018000ed58 f   libucrt:per_thread_data.obj
 0001:0000de10       __acrt_initialize_ptd      000000018000ee10 f   libucrt:per_thread_data.obj
 0001:0000de4c       __acrt_uninitialize_ptd    000000018000ee4c f   libucrt:per_thread_data.obj
 0001:0000de70       __acrt_initialize_locks    000000018000ee70 f   libucrt:locks.obj
 0001:0000deb8       __acrt_lock                000000018000eeb8 f   libucrt:locks.obj
 0001:0000ded4       __acrt_uninitialize_locks  000000018000eed4 f   libucrt:locks.obj
 0001:0000df0c       __acrt_unlock              000000018000ef0c f   libucrt:locks.obj
 0001:0000df28       __acrt_get_process_end_policy 000000018000ef28 f   libucrt:win_policies.obj
 0001:0000dfdc       _ismbblead                 000000018000efdc f   libucrt:ismbbyte.obj
 0001:0000dff0       __acrt_update_locale_info  000000018000eff0 f   libucrt:locale_update.obj
 0001:0000e024       __acrt_update_multibyte_info 000000018000f024 f   libucrt:locale_update.obj
 0001:0000e0c8       __acrt_set_locale_changed  000000018000f0c8 f   libucrt:wsetlocale.obj
 0001:0000e0d4       __acrt_uninitialize_locale 000000018000f0d4 f   libucrt:wsetlocale.obj
 0001:0000e104       __pctype_func              000000018000f104 f   libucrt:ctype.obj
 0001:0000e134       _isleadbyte_l              000000018000f134 f i libucrt:_wctype.obj
 0001:0000e174       _isctype_l                 000000018000f174 f   libucrt:isctype.obj
 0001:0000e5a0       __acrt_LCMapStringA        000000018000f5a0 f   libucrt:lcmapstringa.obj
 0001:0000e638       _calloc_base               000000018000f638 f   libucrt:calloc_base.obj
 0001:0000e6b0       _free_base                 000000018000f6b0 f   libucrt:free_base.obj
 0001:0000e8c8       __acrt_AppPolicyGetProcessTerminationMethodInternal 000000018000f8c8 f   libucrt:winapi_thunks.obj
 0001:0000e918       __acrt_FlsAlloc            000000018000f918 f   libucrt:winapi_thunks.obj
 0001:0000e960       __acrt_FlsFree             000000018000f960 f   libucrt:winapi_thunks.obj
 0001:0000e9a8       __acrt_FlsGetValue         000000018000f9a8 f   libucrt:winapi_thunks.obj
 0001:0000e9f0       __acrt_FlsSetValue         000000018000f9f0 f   libucrt:winapi_thunks.obj
 0001:0000ea44       __acrt_InitializeCriticalSectionEx 000000018000fa44 f   libucrt:winapi_thunks.obj
 0001:0000eaa8       __acrt_LCMapStringEx       000000018000faa8 f   libucrt:winapi_thunks.obj
 0001:0000eb84       __acrt_LocaleNameToLCID    000000018000fb84 f   libucrt:winapi_thunks.obj
 0001:0000ebd4       __acrt_initialize_winapi_thunks 000000018000fbd4 f   libucrt:winapi_thunks.obj
 0001:0000ec1c       __acrt_uninitialize_winapi_thunks 000000018000fc1c f   libucrt:winapi_thunks.obj
 0001:0000ec60       _fcloseall                 000000018000fc60 f   libucrt:closeall.obj
 0001:0000eef0       __acrt_stdio_flush_nolock  000000018000fef0 f   libucrt:fflush.obj
 0001:0000ef6c       _fflush_nolock             000000018000ff6c f   libucrt:fflush.obj
 0001:0000efb8       _flushall                  000000018000ffb8 f   libucrt:fflush.obj
 0001:0000efc0       __acrt_stdio_free_buffer_nolock 000000018000ffc0 f   libucrt:_freebuf.obj
 0001:0000f1e8       __acrt_initialize_lowio    00000001800101e8 f   libucrt:ioinit.obj
 0001:0000f224       __acrt_uninitialize_lowio  0000000180010224 f   libucrt:ioinit.obj
 0001:0000f264       isdigit                    0000000180010264 f i libucrt:_ctype.obj
 0001:0000f2dc       _malloc_base               00000001800102dc f   libucrt:malloc_base.obj
 0001:0000f33c       _mbtowc_l                  000000018001033c f   libucrt:mbtowc.obj
 0001:0000f4b8       mbtowc                     00000001800104b8 f   libucrt:mbtowc.obj
 0001:0000f4c0       _wctomb_s_l                00000001800104c0 f   libucrt:wctomb.obj
 0001:0000f644       wctomb_s                   0000000180010644 f   libucrt:wctomb.obj
 0001:0000f658       strnlen                    0000000180010658 f   libucrt:strnlen.obj
 0001:0000f7a8       wcsnlen                    00000001800107a8 f   libucrt:strnlen.obj
 0001:00010350       __acrt_fp_format           0000000180011350 f   libucrt:cvt.obj
 0001:000105d8       _fileno                    00000001800115d8 f   libucrt:fileno.obj
 0001:00010600       _fputc_nolock              0000000180011600 f   libucrt:fputc.obj
 0001:00010618       _get_printf_count_output   0000000180011618 f   libucrt:printf_count_output.obj
 0001:00010630       __acrt_stdio_begin_temporary_buffering_nolock 0000000180011630 f   libucrt:_sftbuf.obj
 0001:00010700       __acrt_stdio_end_temporary_buffering_nolock 0000000180011700 f   libucrt:_sftbuf.obj
 0001:00010ca4       __acrt_expand_narrow_argv_wildcards 0000000180011ca4 f   libucrt:argv_wildcards.obj
 0001:00010cac       __acrt_GetModuleFileNameA  0000000180011cac f   libucrt:getmodulefilenamea.obj
 0001:00011454       __acrt_initialize_multibyte 0000000180012454 f   libucrt:mbctype.obj
 0001:000114b4       __acrt_update_thread_multibyte_data 00000001800124b4 f   libucrt:mbctype.obj
 0001:000114d0       _setmbcp_nolock            00000001800124d0 f   libucrt:mbctype.obj
 0001:00011788       __acrt_initialize_command_line 0000000180012788 f   libucrt:argv_data.obj
 0001:000117b0       __acrt_MultiByteToWideChar 00000001800127b0 f   libucrt:multibytetowidechar.obj
 0001:0001180c       __acrt_WideCharToMultiByte 000000018001280c f   libucrt:widechartomultibyte.obj
 0001:000118a4       __dcrt_get_narrow_environment_from_os 00000001800128a4 f   libucrt:get_environment_from_os.obj
 0001:000119a8       __acrt_initialize_heap     00000001800129a8 f   libucrt:heap_handle.obj
 0001:000119c4       __acrt_uninitialize_heap   00000001800129c4 f   libucrt:heap_handle.obj
 0001:000119d0       __acrt_execute_initializers 00000001800129d0 f   libucrt:shared_initialization.obj
 0001:00011a50       __acrt_execute_uninitializers 0000000180012a50 f   libucrt:shared_initialization.obj
 0001:00011ad4       __acrt_get_sigabrt_handler 0000000180012ad4 f   libucrt:signal.obj
 0001:00011b04       __acrt_initialize_signal_handlers 0000000180012b04 f   libucrt:signal.obj
 0001:00011b24       raise                      0000000180012b24 f   libucrt:signal.obj
 0001:00011da4       __acrt_has_user_matherr    0000000180012da4 f   libucrt:matherr.obj
 0001:00011dc4       __acrt_initialize_user_matherr 0000000180012dc4 f   libucrt:matherr.obj
 0001:00011dcc       __acrt_invoke_user_matherr 0000000180012dcc f   libucrt:matherr.obj
 0001:00011dfc       _msize                     0000000180012dfc f   libucrt:msize.obj
 0001:00011e04       _msize_base                0000000180012e04 f   libucrt:msize.obj
 0001:00011e40       _realloc_base              0000000180012e40 f   libucrt:realloc_base.obj
 0001:00011ebc       __acrt_add_locale_ref      0000000180012ebc f   libucrt:locale_refcounting.obj
 0001:00011f48       __acrt_free_locale         0000000180012f48 f   libucrt:locale_refcounting.obj
 0001:000120c0       __acrt_locale_add_lc_time_reference 00000001800130c0 f   libucrt:locale_refcounting.obj
 0001:000120e8       __acrt_locale_free_lc_time_if_unreferenced 00000001800130e8 f   libucrt:locale_refcounting.obj
 0001:00012120       __acrt_locale_release_lc_time_reference 0000000180013120 f   libucrt:locale_refcounting.obj
 0001:00012148       __acrt_release_locale_ref  0000000180013148 f   libucrt:locale_refcounting.obj
 0001:000121f0       __acrt_update_thread_locale_data 00000001800131f0 f   libucrt:locale_refcounting.obj
 0001:00012260       _updatetlocinfoEx_nolock   0000000180013260 f   libucrt:locale_refcounting.obj
 0001:000122c8       __acrt_locale_free_monetary 00000001800132c8 f   libucrt:initmon.obj
 0001:000123d4       __acrt_locale_free_numeric 00000001800133d4 f   libucrt:initnum.obj
 0001:00012494       __acrt_locale_free_time    0000000180013494 f   libucrt:inittime.obj
 0001:0001259c       __acrt_GetStringTypeA      000000018001359c f   libucrt:getstringtypea.obj
 0001:0001272c       __strncnt                  000000018001372c f   libucrt:strncnt.obj
 0001:00012744       _query_new_mode            0000000180013744 f   libucrt:new_mode.obj
 0001:00012834       __acrt_DownlevelLocaleNameToLCID 0000000180013834 f   libucrt:lcidtoname_downlevel.obj
 0001:00012868       _fclose_nolock             0000000180013868 f   libucrt:fclose.obj
 0001:000128ec       fclose                     00000001800138ec f   libucrt:fclose.obj
 0001:000129dc       _commit                    00000001800139dc f   libucrt:commit.obj
 0001:00013018       _write                     0000000180014018 f   libucrt:write.obj
 0001:00013104       _write_nolock              0000000180014104 f   libucrt:write.obj
 0001:000133e4       __acrt_lowio_create_handle_array 00000001800143e4 f   libucrt:osfinfo.obj
 0001:0001347c       __acrt_lowio_destroy_handle_array 000000018001447c f   libucrt:osfinfo.obj
 0001:000134cc       __acrt_lowio_ensure_fh_exists 00000001800144cc f   libucrt:osfinfo.obj
 0001:00013574       __acrt_lowio_lock_fh       0000000180014574 f   libucrt:osfinfo.obj
 0001:00013598       __acrt_lowio_unlock_fh     0000000180014598 f   libucrt:osfinfo.obj
 0001:000135bc       _free_osfhnd               00000001800145bc f   libucrt:osfinfo.obj
 0001:00013678       _get_osfhandle             0000000180014678 f   libucrt:osfinfo.obj
 0001:000136f0       ?__mbrtowc_utf8@__crt_mbstring@@YA_KPEA_WPEBD_KPEAU_Mbstatet@@@Z 00000001800146f0 f   libucrt:mbrtowc.obj
 0001:0001372c       ?__mbsrtowcs_utf8@__crt_mbstring@@YA_KPEA_WPEAPEBD_KPEAU_Mbstatet@@@Z 000000018001472c f   libucrt:mbrtowc.obj
 0001:000138a4       __acrt_fp_strflt_to_string 00000001800148a4 f   libucrt:_fptostr.obj
 0001:00013990       ?divide@__crt_strtox@@YA_KAEAUbig_integer@1@AEBU21@@Z 0000000180014990 f i libucrt:cfout.obj
 0001:00013e20       __acrt_fltout              0000000180014e20 f   libucrt:cfout.obj
 0001:00015260       __acrt_stdio_flush_and_write_narrow_nolock 0000000180016260 f   libucrt:_flsbuf.obj
 0001:00015348       _isatty                    0000000180016348 f   libucrt:isatty.obj
 0001:000153b0       qsort                      00000001800163b0 f   libucrt:qsort.obj
 0001:00015760       strncpy_s                  0000000180016760 f   libucrt:strncpy_s.obj
 0001:000158f0       strpbrk                    00000001800168f0 f   libucrt:strpbrk.obj
 0001:00015cd0       ??$__acrt_convert_wcs_mbs@D_W$$A6A_KPEA_WPEBD_KPEAU__crt_locale_pointers@@@ZU__crt_win32_buffer_internal_dynamic_resizing@@@@YAHQEBDAEAV?$__crt_win32_buffer@_WU__crt_win32_buffer_internal_dynamic_resizing@@@@A6A_KPEA_WPEBD_KPEAU__crt_locale_pointers@@@Z5@Z 0000000180016cd0 f i libucrt:findfirstfileexa.obj
 0001:00015dd8       __acrt_FindFirstFileExA    0000000180016dd8 f   libucrt:findfirstfileexa.obj
 0001:00015e7c       ??$__acrt_convert_wcs_mbs@_WD$$A6A_KPEADPEB_W_KPEAU__crt_locale_pointers@@@ZU__crt_win32_buffer_no_resizing@@@@YAHQEB_WAEAV?$__crt_win32_buffer@DU__crt_win32_buffer_no_resizing@@@@A6A_KPEADPEB_W_KPEAU__crt_locale_pointers@@@Z5@Z 0000000180016e7c f i libucrt:findnextfilea.obj
 0001:00015f48       __acrt_FindNextFileA       0000000180016f48 f   libucrt:findnextfilea.obj
 0001:0001607c       _mbsdec                    000000018001707c f   libucrt:mbsdec.obj
 0001:00016084       _mbsdec_l                  0000000180017084 f   libucrt:mbsdec.obj
 0001:0001631c       _mbstowcs_l                000000018001731c f   libucrt:mbstowcs.obj
 0001:00016324       mbstowcs                   0000000180017324 f   libucrt:mbstowcs.obj
 0001:000163cc       _close                     00000001800173cc f   libucrt:close.obj
 0001:00016470       _close_nolock              0000000180017470 f   libucrt:close.obj
 0001:0001652c       ?__acrt_stdio_free_stream@@YAXV__crt_stdio_stream@@@Z 000000018001752c f   libucrt:stream.obj
 0001:000166d4       _lseeki64                  00000001800176d4 f   libucrt:lseek.obj
 0001:000166dc       _lseeki64_nolock           00000001800176dc f   libucrt:lseek.obj
 0001:000166e4       _putwch_nolock             00000001800176e4 f   libucrt:putwch.obj
 0001:00016720       _query_app_type            0000000180017720 f   libucrt:report_runtime_error.obj
 0001:00016728       ?__mbrtoc32_utf8@__crt_mbstring@@YA_KPEA_UPEBD_KPEAU_Mbstatet@@@Z 0000000180017728 f   libucrt:mbrtoc32.obj
 0001:00016904       fegetenv                   0000000180017904 f   libucrt:fegetenv.obj
 0001:00016924       fesetenv                   0000000180017924 f   libucrt:fesetenv.obj
 0001:00016974       feholdexcept               0000000180017974 f   libucrt:feholdexcept.obj
 0001:000169c4       ceil                       00000001800179c4 f   libucrt:ceil.obj
 0001:00016a90       log10                      0000000180017a90 f   libucrt:log10.obj
 0001:0001703c       __acrt_stdio_allocate_buffer_nolock 000000018001803c f   libucrt:_getbuf.obj
 0001:0001740c       _wcstombs_l                000000018001840c f   libucrt:wcstombs.obj
 0001:00017414       __dcrt_lowio_ensure_console_output_initialized 0000000180018414 f   libucrt:initcon.obj
 0001:00017468       __dcrt_terminate_console_output 0000000180018468 f   libucrt:initcon.obj
 0001:00017484       __dcrt_write_console       0000000180018484 f   libucrt:initcon.obj
 0001:00017544       __acrt_fenv_get_control    0000000180018544 f   libucrt:_fenvutils.obj
 0001:00017644       __acrt_fenv_get_status     0000000180018644 f   libucrt:_fenvutils.obj
 0001:0001769c       __acrt_fenv_set_control    000000018001869c f   libucrt:_fenvutils.obj
 0001:000177e4       __acrt_fenv_set_status     00000001800187e4 f   libucrt:_fenvutils.obj
 0001:00017868       _clearfp                   0000000180018868 f   libucrt:ieee.obj
 0001:000179fc       _handle_error              00000001800189fc f   libucrt:libm_error.obj
 0001:00017b24       _handle_nan                0000000180018b24 f   libucrt:libm_error.obj
 0001:00017b40       __acrt_initialize_fma3     0000000180018b40 f   libucrt:fma3_available.obj
 0001:00017bb0       _log10_special             0000000180018bb0 f   libucrt:log_special.obj
 0001:00017c68       ?__wcsrtombs_utf8@__crt_mbstring@@YA_KPEADPEAPEB_W_KPEAU_Mbstatet@@@Z 0000000180018c68 f   libucrt:wcrtomb.obj
 0001:00017da0       _get_fpsr                  0000000180018da0 f   libucrt:fpsr.obj
 0001:00017db0       _set_fpsr                  0000000180018db0 f   libucrt:fpsr.obj
 0001:00017dba       _fclrf                     0000000180018dba f   libucrt:fpsr.obj
 0001:00017dce       _frnd                      0000000180018dce f   libucrt:fpsr.obj
 0001:00017df0       _raise_exc                 0000000180018df0 f   libucrt:fpexcept.obj
 0001:00017e18       _raise_exc_ex              0000000180018e18 f   libucrt:fpexcept.obj
 0001:00018128       _set_errno_from_matherr    0000000180019128 f   libucrt:fpexcept.obj
 0001:00018158       _clrfp                     0000000180019158 f   libucrt:fpctrl.obj
 0001:00018178       _ctrlfp                    0000000180019178 f   libucrt:fpctrl.obj
 0001:000181f4       _set_statfp                00000001800191f4 f   libucrt:fpctrl.obj
 0001:00018214       _statfp                    0000000180019214 f   libucrt:fpctrl.obj
 0001:00018228       ?__c16rtomb_utf8@__crt_mbstring@@YA_KPEAD_SPEAU_Mbstatet@@@Z 0000000180019228 f   libucrt:c16rtomb.obj
 0001:000182d0       ?__c32rtomb_utf8@__crt_mbstring@@YA_KPEAD_UPEAU_Mbstatet@@@Z 00000001800192d0 f   libucrt:c32rtomb.obj
 0001:00018388       c32rtomb                   0000000180019388 f   libucrt:c32rtomb.obj
 0001:0001838d       IsProcessorFeaturePresent  000000018001938d f   kernel32:KERNEL32.dll
 0001:00018393       RtlUnwindEx                0000000180019393 f   kernel32:KERNEL32.dll
 0001:000183a0       _FindPESection             00000001800193a0 f   LIBCMT:pesect.obj
 0001:000183f0       _IsNonwritableInCurrentImage 00000001800193f0 f   LIBCMT:pesect.obj
 0001:00018440       _ValidateImageBase         0000000180019440 f   LIBCMT:pesect.obj
 0001:00018470       __GSHandlerCheck           0000000180019470 f   LIBCMT:_gshandler_.obj
 0001:00018490       __GSHandlerCheckCommon     0000000180019490 f   LIBCMT:_gshandler_.obj
 0001:00018500       __chkstk                   0000000180019500 f   LIBCMT:_chkstk_.obj
 0001:00018500       _alloca_probe              0000000180019500 f   LIBCMT:_chkstk_.obj
 0001:00018554       __GSHandlerCheck_EH        0000000180019554 f   LIBCMT:gshandlereh.obj
 0001:000185d4       strrchr                    00000001800195d4 f   libvcruntime:strrchr.obj
 0001:00018720       strchr                     0000000180019720 f   libvcruntime:strchr.obj
 0001:000187c0       memcmp                     00000001800197c0 f   libvcruntime:memcmp.obj
 0001:000188a0       memchr                     00000001800198a0 f   libvcruntime:memchr.obj
 0001:00018920       _guard_dispatch_icall_nop  0000000180019920 f   LIBCMT:_guard_dispatch_.obj
 0001:00018d30       ??__FstrMgr@?1??GetInstance@CAtlStringMgr@ATL@@SAPEAUIAtlStringMgr@2@XZ@YAXXZ 0000000180019d30 f i detection_win.obj
 0001:00018d40       ??__FstrHeap@?1??GetInstance@CAtlStringMgr@ATL@@SAPEAUIAtlStringMgr@2@XZ@YAXXZ 0000000180019d40 f i detection_win.obj
 0002:00000000       __imp_SizeofResource       000000018001a000     kernel32:KERNEL32.dll
 0002:00000008       __imp_HeapFree             000000018001a008     kernel32:KERNEL32.dll
 0002:00000010       __imp_InitializeCriticalSectionEx 000000018001a010     kernel32:KERNEL32.dll
 0002:00000018       __imp_WaitForSingleObject  000000018001a018     kernel32:KERNEL32.dll
 0002:00000020       __imp_GetCurrentThreadId   000000018001a020     kernel32:KERNEL32.dll
 0002:00000028       __imp_GetModuleHandleA     000000018001a028     kernel32:KERNEL32.dll
 0002:00000030       __imp_HeapSize             000000018001a030     kernel32:KERNEL32.dll
 0002:00000038       __imp_GetLastError         000000018001a038     kernel32:KERNEL32.dll
 0002:00000040       __imp_SetEvent             000000018001a040     kernel32:KERNEL32.dll
 0002:00000048       __imp_LoadLibraryA         000000018001a048     kernel32:KERNEL32.dll
 0002:00000050       __imp_LockResource         000000018001a050     kernel32:KERNEL32.dll
 0002:00000058       __imp_HeapReAlloc          000000018001a058     kernel32:KERNEL32.dll
 0002:00000060       __imp_RaiseException       000000018001a060     kernel32:KERNEL32.dll
 0002:00000068       __imp_CreateThread         000000018001a068     kernel32:KERNEL32.dll
 0002:00000070       __imp_FindResourceExW      000000018001a070     kernel32:KERNEL32.dll
 0002:00000078       __imp_LoadResource         000000018001a078     kernel32:KERNEL32.dll
 0002:00000080       __imp_FindResourceW        000000018001a080     kernel32:KERNEL32.dll
 0002:00000088       __imp_HeapAlloc            000000018001a088     kernel32:KERNEL32.dll
 0002:00000090       __imp_HeapDestroy          000000018001a090     kernel32:KERNEL32.dll
 0002:00000098       __imp_GetProcAddress       000000018001a098     kernel32:KERNEL32.dll
 0002:000000a0       __imp_DeleteCriticalSection 000000018001a0a0     kernel32:KERNEL32.dll
 0002:000000a8       __imp_GetProcessHeap       000000018001a0a8     kernel32:KERNEL32.dll
 0002:000000b0       __imp_WideCharToMultiByte  000000018001a0b0     kernel32:KERNEL32.dll
 0002:000000b8       __imp_CreateEventA         000000018001a0b8     kernel32:KERNEL32.dll
 0002:000000c0       __imp_CreateFileW          000000018001a0c0     kernel32:KERNEL32.dll
 0002:000000c8       __imp_SetFilePointerEx     000000018001a0c8     kernel32:KERNEL32.dll
 0002:000000d0       __imp_CloseHandle          000000018001a0d0     kernel32:KERNEL32.dll
 0002:000000d8       __imp_SetStdHandle         000000018001a0d8     kernel32:KERNEL32.dll
 0002:000000e0       __imp_GetConsoleMode       000000018001a0e0     kernel32:KERNEL32.dll
 0002:000000e8       __imp_GetConsoleCP         000000018001a0e8     kernel32:KERNEL32.dll
 0002:000000f0       __imp_WriteFile            000000018001a0f0     kernel32:KERNEL32.dll
 0002:000000f8       __imp_FlushFileBuffers     000000018001a0f8     kernel32:KERNEL32.dll
 0002:00000100       __imp_GetStringTypeW       000000018001a100     kernel32:KERNEL32.dll
 0002:00000108       __imp_FreeEnvironmentStringsW 000000018001a108     kernel32:KERNEL32.dll
 0002:00000110       __imp_GetEnvironmentStringsW 000000018001a110     kernel32:KERNEL32.dll
 0002:00000118       __imp_MultiByteToWideChar  000000018001a118     kernel32:KERNEL32.dll
 0002:00000120       __imp_GetCommandLineW      000000018001a120     kernel32:KERNEL32.dll
 0002:00000128       __imp_GetCommandLineA      000000018001a128     kernel32:KERNEL32.dll
 0002:00000130       __imp_GetCPInfo            000000018001a130     kernel32:KERNEL32.dll
 0002:00000138       __imp_GetOEMCP             000000018001a138     kernel32:KERNEL32.dll
 0002:00000140       __imp_GetACP               000000018001a140     kernel32:KERNEL32.dll
 0002:00000148       __imp_IsValidCodePage      000000018001a148     kernel32:KERNEL32.dll
 0002:00000150       __imp_FindNextFileW        000000018001a150     kernel32:KERNEL32.dll
 0002:00000158       __imp_FindFirstFileExW     000000018001a158     kernel32:KERNEL32.dll
 0002:00000160       __imp_FindClose            000000018001a160     kernel32:KERNEL32.dll
 0002:00000168       __imp_GetFileType          000000018001a168     kernel32:KERNEL32.dll
 0002:00000170       __imp_GetStdHandle         000000018001a170     kernel32:KERNEL32.dll
 0002:00000178       __imp_LCMapStringW         000000018001a178     kernel32:KERNEL32.dll
 0002:00000180       __imp_GetModuleFileNameW   000000018001a180     kernel32:KERNEL32.dll
 0002:00000188       __imp_GetModuleHandleExW   000000018001a188     kernel32:KERNEL32.dll
 0002:00000190       __imp_ExitProcess          000000018001a190     kernel32:KERNEL32.dll
 0002:00000198       __imp_EncodePointer        000000018001a198     kernel32:KERNEL32.dll
 0002:000001a0       __imp_LoadLibraryExW       000000018001a1a0     kernel32:KERNEL32.dll
 0002:000001a8       __imp_FreeLibrary          000000018001a1a8     kernel32:KERNEL32.dll
 0002:000001b0       __imp_TlsFree              000000018001a1b0     kernel32:KERNEL32.dll
 0002:000001b8       __imp_TlsSetValue          000000018001a1b8     kernel32:KERNEL32.dll
 0002:000001c0       __imp_TlsGetValue          000000018001a1c0     kernel32:KERNEL32.dll
 0002:000001c8       __imp_TlsAlloc             000000018001a1c8     kernel32:KERNEL32.dll
 0002:000001d0       __imp_InitializeCriticalSectionAndSpinCount 000000018001a1d0     kernel32:KERNEL32.dll
 0002:000001d8       __imp_SetLastError         000000018001a1d8     kernel32:KERNEL32.dll
 0002:000001e0       __imp_InterlockedFlushSList 000000018001a1e0     kernel32:KERNEL32.dll
 0002:000001e8       __imp_RtlUnwindEx          000000018001a1e8     kernel32:KERNEL32.dll
 0002:000001f0       __imp_RtlPcToFileHeader    000000018001a1f0     kernel32:KERNEL32.dll
 0002:000001f8       __imp_LeaveCriticalSection 000000018001a1f8     kernel32:KERNEL32.dll
 0002:00000200       __imp_WriteConsoleW        000000018001a200     kernel32:KERNEL32.dll
 0002:00000208       __imp_EnterCriticalSection 000000018001a208     kernel32:KERNEL32.dll
 0002:00000210       __imp_OutputDebugStringW   000000018001a210     kernel32:KERNEL32.dll
 0002:00000218       __imp_InitializeSListHead  000000018001a218     kernel32:KERNEL32.dll
 0002:00000220       __imp_GetSystemTimeAsFileTime 000000018001a220     kernel32:KERNEL32.dll
 0002:00000228       __imp_GetCurrentProcessId  000000018001a228     kernel32:KERNEL32.dll
 0002:00000230       __imp_QueryPerformanceCounter 000000018001a230     kernel32:KERNEL32.dll
 0002:00000238       __imp_GetModuleHandleW     000000018001a238     kernel32:KERNEL32.dll
 0002:00000240       __imp_RtlCaptureContext    000000018001a240     kernel32:KERNEL32.dll
 0002:00000248       __imp_RtlLookupFunctionEntry 000000018001a248     kernel32:KERNEL32.dll
 0002:00000250       __imp_RtlVirtualUnwind     000000018001a250     kernel32:KERNEL32.dll
 0002:00000258       __imp_UnhandledExceptionFilter 000000018001a258     kernel32:KERNEL32.dll
 0002:00000260       __imp_SetUnhandledExceptionFilter 000000018001a260     kernel32:KERNEL32.dll
 0002:00000268       __imp_GetCurrentProcess    000000018001a268     kernel32:KERNEL32.dll
 0002:00000270       __imp_TerminateProcess     000000018001a270     kernel32:KERNEL32.dll
 0002:00000278       __imp_IsProcessorFeaturePresent 000000018001a278     kernel32:KERNEL32.dll
 0002:00000280       __imp_IsDebuggerPresent    000000018001a280     kernel32:KERNEL32.dll
 0002:00000288       __imp_GetStartupInfoW      000000018001a288     kernel32:KERNEL32.dll
 0002:00000290       \177KERNEL32_NULL_THUNK_DATA 000000018001a290     kernel32:KERNEL32.dll
 0002:00000298       __imp_DispatchMessageA     000000018001a298     user32:USER32.dll
 0002:000002a0       __imp_RegisterDeviceNotificationA 000000018001a2a0     user32:USER32.dll
 0002:000002a8       __imp_RegisterClassA       000000018001a2a8     user32:USER32.dll
 0002:000002b0       __imp_CreateWindowExA      000000018001a2b0     user32:USER32.dll
 0002:000002b8       __imp_TranslateMessage     000000018001a2b8     user32:USER32.dll
 0002:000002c0       __imp_GetMessageA          000000018001a2c0     user32:USER32.dll
 0002:000002c8       \177USER32_NULL_THUNK_DATA 000000018001a2c8     user32:USER32.dll
 0002:000002d0       __imp_uv_queue_work        000000018001a2d0     node:node.dll
 0002:000002d8       __imp_?EmitAsyncDestroy@node@@YAXPEAVIsolate@v8@@Uasync_context@1@@Z 000000018001a2d8     node:node.dll
 0002:000002e0       __imp_?MakeCallback@node@@YA?AV?$MaybeLocal@VValue@v8@@@v8@@PEAVIsolate@3@V?$Local@VObject@v8@@@3@V?$Local@VFunction@v8@@@3@HPEAV?$Local@VValue@v8@@@3@Uasync_context@1@@Z 000000018001a2e0     node:node.dll
 0002:000002e8       __imp_?EmitAsyncInit@node@@YA?AUasync_context@1@PEAVIsolate@v8@@V?$Local@VObject@v8@@@4@V?$Local@VString@v8@@@4@N@Z 000000018001a2e8     node:node.dll
 0002:000002f0       __imp_uv_default_loop      000000018001a2f0     node:node.dll
 0002:000002f8       __imp_uv_signal_start      000000018001a2f8     node:node.dll
 0002:00000300       __imp_uv_signal_stop       000000018001a300     node:node.dll
 0002:00000308       __imp_uv_signal_init       000000018001a308     node:node.dll
 0002:00000310       __imp_node_module_register 000000018001a310     node:node.dll
 0002:00000318       \177node_NULL_THUNK_DATA   000000018001a318     node:node.dll
 0002:00000320       __imp_?Set@Object@v8@@QEAA_NV?$Local@VValue@v8@@@2@0@Z 000000018001a320     nw:nw.dll
 0002:00000328       __imp_?SetInternalField@Object@v8@@QEAAXHV?$Local@VValue@v8@@@2@@Z 000000018001a328     nw:nw.dll
 0002:00000330       __imp_?New@Object@v8@@SA?AV?$Local@VObject@v8@@@2@PEAVIsolate@2@@Z 000000018001a330     nw:nw.dll
 0002:00000338       __imp_?SlowGetInternalField@Object@v8@@AEAA?AV?$Local@VValue@v8@@@2@H@Z 000000018001a338     nw:nw.dll
 0002:00000340       __imp_?New@Number@v8@@SA?AV?$Local@VNumber@v8@@@2@PEAVIsolate@2@N@Z 000000018001a340     nw:nw.dll
 0002:00000348       __imp_?NewFromUtf8@String@v8@@SA?AV?$MaybeLocal@VString@v8@@@2@PEAVIsolate@2@PEBDW4NewStringType@2@H@Z 000000018001a348     nw:nw.dll
 0002:00000350       __imp_??0EscapableHandleScope@v8@@QEAA@PEAVIsolate@1@@Z 000000018001a350     nw:nw.dll
 0002:00000358       __imp_?Escape@EscapableHandleScope@v8@@AEAAPEAPEAVObject@internal@2@PEAPEAV342@@Z 000000018001a358     nw:nw.dll
 0002:00000360       __imp_?IsFunction@Value@v8@@QEBA_NXZ 000000018001a360     nw:nw.dll
 0002:00000368       __imp_?IsNumber@Value@v8@@QEBA_NXZ 000000018001a368     nw:nw.dll
 0002:00000370       __imp_?Set@Object@v8@@QEAA_NIV?$Local@VValue@v8@@@2@@Z 000000018001a370     nw:nw.dll
 0002:00000378       __imp_?GlobalizeReference@V8@v8@@CAPEAPEAVObject@internal@2@PEAVIsolate@42@PEAPEAV342@@Z 000000018001a378     nw:nw.dll
 0002:00000380       __imp_?ToLocalEmpty@V8@v8@@CAXXZ 000000018001a380     nw:nw.dll
 0002:00000388       __imp_?New@FunctionTemplate@v8@@SA?AV?$Local@VFunctionTemplate@v8@@@2@PEAVIsolate@2@P6AXAEBV?$FunctionCallbackInfo@VValue@v8@@@2@@ZV?$Local@VValue@v8@@@2@V?$Local@VSignature@v8@@@2@HW4ConstructorBehavior@2@@Z 000000018001a388     nw:nw.dll
 0002:00000390       __imp_?GetFunction@FunctionTemplate@v8@@QEAA?AV?$MaybeLocal@VFunction@v8@@@2@V?$Local@VContext@v8@@@2@@Z 000000018001a390     nw:nw.dll
 0002:00000398       __imp_?SetClassName@FunctionTemplate@v8@@QEAAXV?$Local@VString@v8@@@2@@Z 000000018001a398     nw:nw.dll
 0002:000003a0       __imp_?New@Array@v8@@SA?AV?$Local@VArray@v8@@@2@PEAVIsolate@2@H@Z 000000018001a3a0     nw:nw.dll
 0002:000003a8       __imp_?TypeError@Exception@v8@@SA?AV?$Local@VValue@v8@@@2@V?$Local@VString@v8@@@2@@Z 000000018001a3a8     nw:nw.dll
 0002:000003b0       __imp_?Error@Exception@v8@@SA?AV?$Local@VValue@v8@@@2@V?$Local@VString@v8@@@2@@Z 000000018001a3b0     nw:nw.dll
 0002:000003b8       __imp_??0HandleScope@v8@@QEAA@PEAVIsolate@1@@Z 000000018001a3b8     nw:nw.dll
 0002:000003c0       __imp_??1HandleScope@v8@@QEAA@XZ 000000018001a3c0     nw:nw.dll
 0002:000003c8       __imp_?CreateHandle@HandleScope@v8@@CAPEAPEAVObject@internal@2@PEAVHeapObject@42@PEAV342@@Z 000000018001a3c8     nw:nw.dll
 0002:000003d0       __imp_?CreateHandle@HandleScope@v8@@KAPEAPEAVObject@internal@2@PEAVIsolate@42@PEAV342@@Z 000000018001a3d0     nw:nw.dll
 0002:000003d8       __imp_?GetCurrent@Isolate@v8@@SAPEAV12@XZ 000000018001a3d8     nw:nw.dll
 0002:000003e0       __imp_?GetCurrentContext@Isolate@v8@@QEAA?AV?$Local@VContext@v8@@@2@XZ 000000018001a3e0     nw:nw.dll
 0002:000003e8       __imp_?ThrowException@Isolate@v8@@QEAA?AV?$Local@VValue@v8@@@2@V32@@Z 000000018001a3e8     nw:nw.dll
 0002:000003f0       __imp_?New@External@v8@@SA?AV?$Local@VExternal@v8@@@2@PEAVIsolate@2@PEAX@Z 000000018001a3f0     nw:nw.dll
 0002:000003f8       __imp_?Value@External@v8@@QEBAPEAXXZ 000000018001a3f8     nw:nw.dll
 0002:00000400       __imp_?Global@Context@v8@@QEAA?AV?$Local@VObject@v8@@@2@XZ 000000018001a400     nw:nw.dll
 0002:00000408       __imp_?SetInternalFieldCount@ObjectTemplate@v8@@QEAAXH@Z 000000018001a408     nw:nw.dll
 0002:00000410       __imp_?NewInstance@ObjectTemplate@v8@@QEAA?AV?$MaybeLocal@VObject@v8@@@2@V?$Local@VContext@v8@@@2@@Z 000000018001a410     nw:nw.dll
 0002:00000418       __imp_?New@ObjectTemplate@v8@@SA?AV?$Local@VObjectTemplate@v8@@@2@PEAVIsolate@2@V?$Local@VFunctionTemplate@v8@@@2@@Z 000000018001a418     nw:nw.dll
 0002:00000420       __imp_?NumberValue@Value@v8@@QEBANXZ 000000018001a420     nw:nw.dll
 0002:00000428       \177nw_NULL_THUNK_DATA     000000018001a428     nw:nw.dll
 0002:00000430       __guard_check_icall_fptr   000000018001a430     LIBCMT:guard_support.obj
 0002:00000438       __guard_dispatch_icall_fptr 000000018001a438     LIBCMT:guard_support.obj
 0002:00000440       __xc_a                     000000018001a440     LIBCMT:initializers.obj
 0002:00000450       _register_detection_       000000018001a450     detection.obj
 0002:00000460       __xc_z                     000000018001a460     LIBCMT:initializers.obj
 0002:00000468       __xi_a                     000000018001a468     LIBCMT:initializers.obj
 0002:00000470       __acrt_stdio_initializer   000000018001a470     libucrt:stdio_initializer.obj
 0002:00000478       __acrt_multibyte_initializer 000000018001a478     libucrt:multibyte_initializer.obj
 0002:00000480       __acrt_tran_fma3_initializer 000000018001a480     libucrt:fma3_initializer.obj
 0002:00000488       __xi_z                     000000018001a488     LIBCMT:initializers.obj
 0002:00000490       __xp_a                     000000018001a490     LIBCMT:initializers.obj
 0002:00000498       __acrt_locale_terminator   000000018001a498     libucrt:locale_initializer.obj
 0002:000004a0       __dcrt_console_output_terminator 000000018001a4a0     libucrt:console_output_initializer.obj
 0002:000004a8       __acrt_stdio_terminator    000000018001a4a8     libucrt:stdio_initializer.obj
 0002:000004b0       __xp_z                     000000018001a4b0     LIBCMT:initializers.obj
 0002:000004b8       __xt_a                     000000018001a4b8     LIBCMT:initializers.obj
 0002:000004c0       __xt_z                     000000018001a4c0     LIBCMT:initializers.obj
 0002:000004d8       ??_7exception@std@@6B@     000000018001a4d8     libcpmt:xthrow.obj
 0002:000004e8       ??_C@_0BC@EOODALEL@Unknown?5exception?$AA@ 000000018001a4e8     libcpmt:xthrow.obj
 0002:00000508       ??_7bad_alloc@std@@6B@     000000018001a508     libcpmt:xthrow.obj
 0002:00000518       ??_C@_0P@GHFPNOJB@bad?5allocation?$AA@ 000000018001a518     libcpmt:xthrow.obj
 0002:00000530       ??_7logic_error@std@@6B@   000000018001a530     libcpmt:xthrow.obj
 0002:00000548       ??_7length_error@std@@6B@  000000018001a548     libcpmt:xthrow.obj
 0002:00000560       ??_7out_of_range@std@@6B@  000000018001a560     libcpmt:xthrow.obj
 0002:00000570       _pDefaultRawDllMain        000000018001a570     LIBCMT:dll_dllmain.obj
 0002:00000570       _pRawDllMain               000000018001a570     LIBCMT:dll_dllmain.obj
 0002:00000580       ??_7type_info@@6B@         000000018001a580     LIBCMT:std_type_info_static.obj
 0002:000005a0       ??_7bad_array_new_length@std@@6B@ 000000018001a5a0     LIBCMT:throw_bad_alloc.obj
 0002:000005b0       ??_C@_0BF@KINCDENJ@bad?5array?5new?5length?$AA@ 000000018001a5b0     LIBCMT:throw_bad_alloc.obj
 0002:000005c8       GUID_ATLVer110             000000018001a5c8     atls:atlbase.obj
 0002:000005e0       ??_C@_1IC@ONKHOIDK@?$AAE?$AAR?$AAR?$AAO?$AAR?$AA?5?$AA?3?$AA?5?$AAU?$AAn?$AAa?$AAb?$AAl?$AAe?$AA?5?$AAt?$AAo?$AA?5?$AAi?$AAn?$AAi?$AAt?$AAi?$AAa?$AAl?$AAi?$AAz?$AAe?$AA?5?$AAc?$AAr?$AAi@ 000000018001a5e0     atls:atlbase.obj
 0002:000006c8       ??_C@_1DM@KHCHBNEB@?$AAa?$AAp?$AAi?$AA?9?$AAm?$AAs?$AA?9?$AAw?$AAi?$AAn?$AA?9?$AAc?$AAo?$AAr?$AAe?$AA?9?$AAf?$AAi?$AAb?$AAe?$AAr?$AAs?$AA?9?$AAl?$AA1?$AA?9?$AA1?$AA?9?$AA1?$AA?$AA@ 000000018001a6c8     libvcruntime:winapi_downlevel.obj
 0002:00000708       ??_C@_1DK@LPPGFMPP@?$AAa?$AAp?$AAi?$AA?9?$AAm?$AAs?$AA?9?$AAw?$AAi?$AAn?$AA?9?$AAc?$AAo?$AAr?$AAe?$AA?9?$AAs?$AAy?$AAn?$AAc?$AAh?$AA?9?$AAl?$AA1?$AA?9?$AA2?$AA?9?$AA0?$AA?$AA@ 000000018001a708     libvcruntime:winapi_downlevel.obj
 0002:00000748       ??_C@_1BC@GDMECMAK@?$AAk?$AAe?$AAr?$AAn?$AAe?$AAl?$AA3?$AA2?$AA?$AA@ 000000018001a748     libvcruntime:winapi_downlevel.obj
 0002:00000760       ??_C@_1BA@PFFKHIOG@?$AAa?$AAp?$AAi?$AA?9?$AAm?$AAs?$AA?9?$AA?$AA@ 000000018001a760     libvcruntime:winapi_downlevel.obj
 0002:00000770       ??_C@_1BA@IAIFMGEF@?$AAe?$AAx?$AAt?$AA?9?$AAm?$AAs?$AA?9?$AA?$AA@ 000000018001a770     libvcruntime:winapi_downlevel.obj
 0002:00000788       ??_C@_08KNHFBNJ@FlsAlloc?$AA@ 000000018001a788     libvcruntime:winapi_downlevel.obj
 0002:000007a0       ??_C@_07PEJMOBNF@FlsFree?$AA@ 000000018001a7a0     libvcruntime:winapi_downlevel.obj
 0002:000007b0       ??_C@_0M@GDNOONDI@FlsGetValue?$AA@ 000000018001a7b0     libvcruntime:winapi_downlevel.obj
 0002:000007c8       ??_C@_0M@JCPCPOEF@FlsSetValue?$AA@ 000000018001a7c8     libvcruntime:winapi_downlevel.obj
 0002:000007e0       ??_C@_0BM@HCFOFFN@InitializeCriticalSectionEx?$AA@ 000000018001a7e0     libvcruntime:winapi_downlevel.obj
 0002:00000b30       ??_C@_08EHJDFFNH@__based?$CI?$AA@ 000000018001ab30     libvcruntime:undname.obj
 0002:00000b40       ??_C@_07KOLFKCDI@__cdecl?$AA@ 000000018001ab40     libvcruntime:undname.obj
 0002:00000b48       ??_C@_08GHMPAG@__pascal?$AA@ 000000018001ab48     libvcruntime:undname.obj
 0002:00000b58       ??_C@_09IFJBGAPI@__stdcall?$AA@ 000000018001ab58     libvcruntime:undname.obj
 0002:00000b68       ??_C@_0L@NPHFGOKO@__thiscall?$AA@ 000000018001ab68     libvcruntime:undname.obj
 0002:00000b78       ??_C@_0L@JMKHOMEK@__fastcall?$AA@ 000000018001ab78     libvcruntime:undname.obj
 0002:00000b88       ??_C@_0N@BCKKPABJ@__vectorcall?$AA@ 000000018001ab88     libvcruntime:undname.obj
 0002:00000b98       ??_C@_09HIJEGCPM@__clrcall?$AA@ 000000018001ab98     libvcruntime:undname.obj
 0002:00000ba4       ??_C@_06GHPCKEAG@__eabi?$AA@ 000000018001aba4     libvcruntime:undname.obj
 0002:00000bb0       ??_C@_07EECFKIPL@__swift?$AA@ 000000018001abb0     libvcruntime:undname.obj
 0002:00000bb8       ??_C@_07JOMMBBKO@__ptr64?$AA@ 000000018001abb8     libvcruntime:undname.obj
 0002:00000bc0       ??_C@_0L@PILCLIHE@__restrict?$AA@ 000000018001abc0     libvcruntime:undname.obj
 0002:00000bd0       ??_C@_0M@GFIIJFMG@__unaligned?$AA@ 000000018001abd0     libvcruntime:undname.obj
 0002:00000be0       ??_C@_09DHDLOLLB@restrict?$CI?$AA@ 000000018001abe0     libvcruntime:undname.obj
 0002:00000bec       ??_C@_04NIHEBCM@?5new?$AA@ 000000018001abec     libvcruntime:undname.obj
 0002:00000bf8       ??_C@_07FPCDHGMM@?5delete?$AA@ 000000018001abf8     libvcruntime:undname.obj
 0002:00000c00       ??_C@_01NEMOKFLO@?$DN?$AA@ 000000018001ac00     libvcruntime:undname.obj
 0002:00000c04       ??_C@_02GPIOPFAK@?$DO?$DO?$AA@ 000000018001ac04     libvcruntime:undname.obj
 0002:00000c08       ??_C@_02FODMEDOG@?$DM?$DM?$AA@ 000000018001ac08     libvcruntime:undname.obj
 0002:00000c0c       ??_C@_01DCLJPIOD@?$CB?$AA@ 000000018001ac0c     libvcruntime:undname.obj
 0002:00000c10       ??_C@_02EGOFBIJA@?$DN?$DN?$AA@ 000000018001ac10     libvcruntime:undname.obj
 0002:00000c14       ??_C@_02FDNJECIE@?$CB?$DN?$AA@ 000000018001ac14     libvcruntime:undname.obj
 0002:00000c18       ??_C@_02GPECMEKF@?$FL?$FN?$AA@ 000000018001ac18     libvcruntime:undname.obj
 0002:00000c20       ??_C@_08LHJFAFGD@operator?$AA@ 000000018001ac20     libvcruntime:undname.obj
 0002:00000c2c       ??_C@_02HBOOOICD@?9?$DO?$AA@ 000000018001ac2c     libvcruntime:undname.obj
 0002:00000c30       ??_C@_01NBENCBCI@?$CK?$AA@ 000000018001ac30     libvcruntime:undname.obj
 0002:00000c34       ??_C@_02ECNGHCIF@?$CL?$CL?$AA@ 000000018001ac34     libvcruntime:undname.obj
 0002:00000c38       ??_C@_02BAABKJLB@?9?9?$AA@ 000000018001ac38     libvcruntime:undname.obj
 0002:00000c3c       ??_C@_01JOAMLHOP@?9?$AA@   000000018001ac3c     libvcruntime:undname.obj
 0002:00000c40       ??_C@_01MIFGBAGJ@?$CL?$AA@ 000000018001ac40     libvcruntime:undname.obj
 0002:00000c44       ??_C@_01HNPIGOCE@?$CG?$AA@ 000000018001ac44     libvcruntime:undname.obj
 0002:00000c48       ??_C@_03MNHNFDLC@?9?$DO?$CK?$AA@ 000000018001ac48     libvcruntime:undname.obj
 0002:00000c4c       ??_C@_01KMDKNFGN@?1?$AA@   000000018001ac4c     libvcruntime:undname.obj
 0002:00000c50       ??_C@_01FGNFDNOH@?$CF?$AA@ 000000018001ac50     libvcruntime:undname.obj
 0002:00000c54       ??_C@_01MNNFJEPP@?$DM?$AA@ 000000018001ac54     libvcruntime:undname.obj
 0002:00000c58       ??_C@_02EHCHHCKH@?$DM?$DN?$AA@ 000000018001ac58     libvcruntime:undname.obj
 0002:00000c5c       ??_C@_01PPODPGHN@?$DO?$AA@ 000000018001ac5c     libvcruntime:undname.obj
 0002:00000c60       ??_C@_02EEKDKGMJ@?$DO?$DN?$AA@ 000000018001ac60     libvcruntime:undname.obj
 0002:00000c64       ??_C@_01IHBHIGKO@?0?$AA@   000000018001ac64     libvcruntime:undname.obj
 0002:00000c68       ??_C@_02HCKGKOFO@?$CI?$CJ?$AA@ 000000018001ac68     libvcruntime:undname.obj
 0002:00000c6c       ??_C@_01PJKLJHI@?$HO?$AA@  000000018001ac6c     libvcruntime:undname.obj
 0002:00000c70       ??_C@_01JKBOJNNK@?$FO?$AA@ 000000018001ac70     libvcruntime:undname.obj
 0002:00000c74       ??_C@_01DNKMNLPK@?$HM?$AA@ 000000018001ac74     libvcruntime:undname.obj
 0002:00000c78       ??_C@_02PPKAJPJL@?$CG?$CG?$AA@ 000000018001ac78     libvcruntime:undname.obj
 0002:00000c7c       ??_C@_02NONPIBCD@?$HM?$HM?$AA@ 000000018001ac7c     libvcruntime:undname.obj
 0002:00000c80       ??_C@_02FPIMKNGF@?$CK?$DN?$AA@ 000000018001ac80     libvcruntime:undname.obj
 0002:00000c84       ??_C@_02FOEOMHFC@?$CL?$DN?$AA@ 000000018001ac84     libvcruntime:undname.obj
 0002:00000c88       ??_C@_02FKMDLLOA@?9?$DN?$AA@ 000000018001ac88     libvcruntime:undname.obj
 0002:00000c8c       ??_C@_02FJEHGPIO@?1?$DN?$AA@ 000000018001ac8c     libvcruntime:undname.obj
 0002:00000c90       ??_C@_02FENAOKFI@?$CF?$DN?$AA@ 000000018001ac90     libvcruntime:undname.obj
 0002:00000c94       ??_C@_03IKFCCPFF@?$DO?$DO?$DN?$AA@ 000000018001ac94     libvcruntime:undname.obj
 0002:00000c98       ??_C@_03CDNPDDLA@?$DM?$DM?$DN?$AA@ 000000018001ac98     libvcruntime:undname.obj
 0002:00000c9c       ??_C@_02FGJGFEAB@?$CG?$DN?$AA@ 000000018001ac9c     libvcruntime:undname.obj
 0002:00000ca0       ??_C@_02DHLNPPGH@?$HM?$DN?$AA@ 000000018001aca0     libvcruntime:undname.obj
 0002:00000ca4       ??_C@_02MHEGNOJ@?$FO?$DN?$AA@ 000000018001aca4     libvcruntime:undname.obj
 0002:00000ca8       ??_C@_09IFPLHPGF@?$GAvftable?8?$AA@ 000000018001aca8     libvcruntime:undname.obj
 0002:00000cb8       ??_C@_09BLBHBJP@?$GAvbtable?8?$AA@ 000000018001acb8     libvcruntime:undname.obj
 0002:00000cc8       ??_C@_07FEEIOKP@?$GAvcall?8?$AA@ 000000018001acc8     libvcruntime:undname.obj
 0002:00000cd0       ??_C@_08LLFFHHDJ@?$GAtypeof?8?$AA@ 000000018001acd0     libvcruntime:undname.obj
 0002:00000ce0       ??_C@_0BF@KDPPACIK@?$GAlocal?5static?5guard?8?$AA@ 000000018001ace0     libvcruntime:undname.obj
 0002:00000cf8       ??_C@_08OBABFOLI@?$GAstring?8?$AA@ 000000018001acf8     libvcruntime:undname.obj
 0002:00000d08       ??_C@_0BD@JDLKDPAB@?$GAvbase?5destructor?8?$AA@ 000000018001ad08     libvcruntime:undname.obj
 0002:00000d20       ??_C@_0BN@DEGPLNFK@?$GAvector?5deleting?5destructor?8?$AA@ 000000018001ad20     libvcruntime:undname.obj
 0002:00000d40       ??_C@_0BO@OBMKPJIG@?$GAdefault?5constructor?5closure?8?$AA@ 000000018001ad40     libvcruntime:undname.obj
 0002:00000d60       ??_C@_0BN@IMDCHIKM@?$GAscalar?5deleting?5destructor?8?$AA@ 000000018001ad60     libvcruntime:undname.obj
 0002:00000d80       ??_C@_0BO@PFGOCPJJ@?$GAvector?5constructor?5iterator?8?$AA@ 000000018001ad80     libvcruntime:undname.obj
 0002:00000da0       ??_C@_0BN@LFPFMEDL@?$GAvector?5destructor?5iterator?8?$AA@ 000000018001ada0     libvcruntime:undname.obj
 0002:00000dc0       ??_C@_0CE@IKBNEHA@?$GAvector?5vbase?5constructor?5iterat@ 000000018001adc0     libvcruntime:undname.obj
 0002:00000de8       ??_C@_0BL@NILFHHPC@?$GAvirtual?5displacement?5map?8?$AA@ 000000018001ade8     libvcruntime:undname.obj
 0002:00000e08       ??_C@_0CB@JONCMFFK@?$GAeh?5vector?5constructor?5iterator?8@ 000000018001ae08     libvcruntime:undname.obj
 0002:00000e30       ??_C@_0CA@GCEOPDGL@?$GAeh?5vector?5destructor?5iterator?8?$AA@ 000000018001ae30     libvcruntime:undname.obj
 0002:00000e50       ??_C@_0CH@OOJPLCPH@?$GAeh?5vector?5vbase?5constructor?5ite@ 000000018001ae50     libvcruntime:undname.obj
 0002:00000e78       ??_C@_0BL@LLKPOHJI@?$GAcopy?5constructor?5closure?8?$AA@ 000000018001ae78     libvcruntime:undname.obj
 0002:00000e98       ??_C@_0BA@KBCDOMBN@?$GAudt?5returning?8?$AA@ 000000018001ae98     libvcruntime:undname.obj
 0002:00000ea8       ??_C@_03KLGMFNMG@?$GAEH?$AA@ 000000018001aea8     libvcruntime:undname.obj
 0002:00000eac       ??_C@_05KHLCHHI@?$GARTTI?$AA@ 000000018001aeac     libvcruntime:undname.obj
 0002:00000eb8       ??_C@_0BA@KKLDJDLB@?$GAlocal?5vftable?8?$AA@ 000000018001aeb8     libvcruntime:undname.obj
 0002:00000ec8       ??_C@_0CE@IIHCMGGL@?$GAlocal?5vftable?5constructor?5closu@ 000000018001aec8     libvcruntime:undname.obj
 0002:00000eec       ??_C@_06FHBGPFGH@?5new?$FL?$FN?$AA@ 000000018001aeec     libvcruntime:undname.obj
 0002:00000ef8       ??_C@_09LBNFPBCA@?5delete?$FL?$FN?$AA@ 000000018001aef8     libvcruntime:undname.obj
 0002:00000f08       ??_C@_0P@HJKNJFNN@?$GAomni?5callsig?8?$AA@ 000000018001af08     libvcruntime:undname.obj
 0002:00000f18       ??_C@_0BL@CNOONJFP@?$GAplacement?5delete?5closure?8?$AA@ 000000018001af18     libvcruntime:undname.obj
 0002:00000f38       ??_C@_0BN@CKNJLHMB@?$GAplacement?5delete?$FL?$FN?5closure?8?$AA@ 000000018001af38     libvcruntime:undname.obj
 0002:00000f58       ??_C@_0CG@CFDHKGGD@?$GAmanaged?5vector?5constructor?5iter@ 000000018001af58     libvcruntime:undname.obj
 0002:00000f80       ??_C@_0CF@IMGKMJNO@?$GAmanaged?5vector?5destructor?5itera@ 000000018001af80     libvcruntime:undname.obj
 0002:00000fa8       ??_C@_0CG@HLDDJMAG@?$GAeh?5vector?5copy?5constructor?5iter@ 000000018001afa8     libvcruntime:undname.obj
 0002:00000fd0       ??_C@_0CM@FCBBDIGB@?$GAeh?5vector?5vbase?5copy?5constructo@ 000000018001afd0     libvcruntime:undname.obj
 0002:00001000       ??_C@_0BL@CLIPGLGB@?$GAdynamic?5initializer?5for?5?8?$AA@ 000000018001b000     libvcruntime:undname.obj
 0002:00001020       ??_C@_0CB@PDBIFEP@?$GAdynamic?5atexit?5destructor?5for?5?8@ 000000018001b020     libvcruntime:undname.obj
 0002:00001048       ??_C@_0CD@CGAJBKEJ@?$GAvector?5copy?5constructor?5iterato@ 000000018001b048     libvcruntime:undname.obj
 0002:00001070       ??_C@_0CJ@GJELGAMM@?$GAvector?5vbase?5copy?5constructor?5i@ 000000018001b070     libvcruntime:undname.obj
 0002:000010a0       ??_C@_0CL@FGIJHLCE@?$GAmanaged?5vector?5copy?5constructor@ 000000018001b0a0     libvcruntime:undname.obj
 0002:000010d0       ??_C@_0BM@PMGGMLDN@?$GAlocal?5static?5thread?5guard?8?$AA@ 000000018001b0d0     libvcruntime:undname.obj
 0002:000010f0       ??_C@_0N@BDNMDMOL@operator?5?$CC?$CC?5?$AA@ 000000018001b0f0     libvcruntime:undname.obj
 0002:00001100       ??_C@_0BC@GGEBGALA@operator?5co_await?$AA@ 000000018001b100     libvcruntime:undname.obj
 0002:00001118       ??_C@_0BC@DAFEJGAK@?5Type?5Descriptor?8?$AA@ 000000018001b118     libvcruntime:undname.obj
 0002:00001130       ??_C@_0BM@LDKODKLH@?5Base?5Class?5Descriptor?5at?5?$CI?$AA@ 000000018001b130     libvcruntime:undname.obj
 0002:00001150       ??_C@_0BD@LGICGFMM@?5Base?5Class?5Array?8?$AA@ 000000018001b150     libvcruntime:undname.obj
 0002:00001168       ??_C@_0BN@MECKDCOJ@?5Class?5Hierarchy?5Descriptor?8?$AA@ 000000018001b168     libvcruntime:undname.obj
 0002:00001188       ??_C@_0BK@CFCOFLF@?5Complete?5Object?5Locator?8?$AA@ 000000018001b188     libvcruntime:undname.obj
 0002:00001250       ??_7bad_exception@std@@6B@ 000000018001b250     libvcruntime:frame.obj
 0002:00001260       ??_C@_0O@DPKOEFFH@bad?5exception?$AA@ 000000018001b260     libvcruntime:frame.obj
 0002:00001270       _pDestructExceptionObject  000000018001b270     libvcruntime:ehhelpers.obj
 0002:00001278       ??_C@_1BI@BGOHAHKC@?$AAm?$AAs?$AAc?$AAo?$AAr?$AAe?$AAe?$AA?4?$AAd?$AAl?$AAl?$AA?$AA@ 000000018001b278     libucrt:exit.obj
 0002:00001290       ??_C@_0P@MIGLKIOC@CorExitProcess?$AA@ 000000018001b290     libucrt:exit.obj
 0002:000012a0       standard_lookup_table      000000018001b2a0     libucrt:output.obj
 0002:00001300       format_validation_lookup_table 000000018001b300     libucrt:output.obj
 0002:00001360       ??_C@_1O@CEDCILHN@?$AA?$CI?$AAn?$AAu?$AAl?$AAl?$AA?$CJ?$AA?$AA@ 000000018001b360     libucrt:output.obj
 0002:00001370       ??_C@_06OJHGLDPL@?$CInull?$CJ?$AA@ 000000018001b370     libucrt:output.obj
 0002:000014e0       __acrt_exception_action_table 000000018001b4e0     libucrt:exception_filter.obj
 0002:000015a0       __acrt_signal_action_table_count 000000018001b5a0     libucrt:exception_filter.obj
 0002:000015a8       __acrt_signal_action_first_fpe_index 000000018001b5a8     libucrt:exception_filter.obj
 0002:000015b0       __acrt_signal_action_fpe_count 000000018001b5b0     libucrt:exception_filter.obj
 0002:000016c0       __lc_time_c                000000018001b6c0     libucrt:nlsdata.obj
 0002:00001980       ??_C@_03KOEHGMDN@Sun?$AA@  000000018001b980     libucrt:nlsdata.obj
 0002:00001984       ??_C@_03PDAGKDH@Mon?$AA@   000000018001b984     libucrt:nlsdata.obj
 0002:00001988       ??_C@_03NAGEINEP@Tue?$AA@  000000018001b988     libucrt:nlsdata.obj
 0002:0000198c       ??_C@_03MHOMLAJA@Wed?$AA@  000000018001b98c     libucrt:nlsdata.obj
 0002:00001990       ??_C@_03IOFIKPDN@Thu?$AA@  000000018001b990     libucrt:nlsdata.obj
 0002:00001994       ??_C@_03IDIOELNC@Fri?$AA@  000000018001b994     libucrt:nlsdata.obj
 0002:00001998       ??_C@_03FEFJNEK@Sat?$AA@   000000018001b998     libucrt:nlsdata.obj
 0002:0000199c       ??_C@_06OOPIFAJ@Sunday?$AA@ 000000018001b99c     libucrt:nlsdata.obj
 0002:000019a4       ??_C@_06JLEDEDGH@Monday?$AA@ 000000018001b9a4     libucrt:nlsdata.obj
 0002:000019b0       ??_C@_07BAAGCFCM@Tuesday?$AA@ 000000018001b9b0     libucrt:nlsdata.obj
 0002:000019b8       ??_C@_09DLIGFAKA@Wednesday?$AA@ 000000018001b9b8     libucrt:nlsdata.obj
 0002:000019c8       ??_C@_08HACCIKIA@Thursday?$AA@ 000000018001b9c8     libucrt:nlsdata.obj
 0002:000019d4       ??_C@_06JECMNKMI@Friday?$AA@ 000000018001b9d4     libucrt:nlsdata.obj
 0002:000019e0       ??_C@_08INBOOONO@Saturday?$AA@ 000000018001b9e0     libucrt:nlsdata.obj
 0002:000019ec       ??_C@_03JIHJHPIE@Jan?$AA@  000000018001b9ec     libucrt:nlsdata.obj
 0002:000019f0       ??_C@_03HJBDCHOM@Feb?$AA@  000000018001b9f0     libucrt:nlsdata.obj
 0002:000019f4       ??_C@_03ODNJBKGA@Mar?$AA@  000000018001b9f4     libucrt:nlsdata.obj
 0002:000019f8       ??_C@_03LEOLGMJP@Apr?$AA@  000000018001b9f8     libucrt:nlsdata.obj
 0002:000019fc       ??_C@_03CNMDKL@May?$AA@    000000018001b9fc     libucrt:nlsdata.obj
 0002:00001a00       ??_C@_03IDFGHECI@Jun?$AA@  000000018001ba00     libucrt:nlsdata.obj
 0002:00001a04       ??_C@_03LBGABGKK@Jul?$AA@  000000018001ba04     libucrt:nlsdata.obj
 0002:00001a08       ??_C@_03IFJFEIGA@Aug?$AA@  000000018001ba08     libucrt:nlsdata.obj
 0002:00001a0c       ??_C@_03GGCAPAJC@Sep?$AA@  000000018001ba0c     libucrt:nlsdata.obj
 0002:00001a10       ??_C@_03BMAOKBAD@Oct?$AA@  000000018001ba10     libucrt:nlsdata.obj
 0002:00001a14       ??_C@_03JPJOFNIA@Nov?$AA@  000000018001ba14     libucrt:nlsdata.obj
 0002:00001a18       ??_C@_03MKABNOCG@Dec?$AA@  000000018001ba18     libucrt:nlsdata.obj
 0002:00001a20       ??_C@_07CGJPFGJA@January?$AA@ 000000018001ba20     libucrt:nlsdata.obj
 0002:00001a28       ??_C@_08GNJGEPFN@February?$AA@ 000000018001ba28     libucrt:nlsdata.obj
 0002:00001a34       ??_C@_05HPCKOFNC@March?$AA@ 000000018001ba34     libucrt:nlsdata.obj
 0002:00001a3c       ??_C@_05DMJDNLEJ@April?$AA@ 000000018001ba3c     libucrt:nlsdata.obj
 0002:00001a44       ??_C@_04CNLMGBGM@June?$AA@ 000000018001ba44     libucrt:nlsdata.obj
 0002:00001a4c       ??_C@_04MIEPOIFP@July?$AA@ 000000018001ba4c     libucrt:nlsdata.obj
 0002:00001a54       ??_C@_06LBBHFDDG@August?$AA@ 000000018001ba54     libucrt:nlsdata.obj
 0002:00001a60       ??_C@_09BHHEALKD@September?$AA@ 000000018001ba60     libucrt:nlsdata.obj
 0002:00001a70       ??_C@_07JJNFCEND@October?$AA@ 000000018001ba70     libucrt:nlsdata.obj
 0002:00001a78       ??_C@_08HCHEGEOA@November?$AA@ 000000018001ba78     libucrt:nlsdata.obj
 0002:00001a88       ??_C@_08EDHMEBNP@December?$AA@ 000000018001ba88     libucrt:nlsdata.obj
 0002:00001a94       ??_C@_02DEDBPAFC@AM?$AA@   000000018001ba94     libucrt:nlsdata.obj
 0002:00001a98       ??_C@_02CJNFDJBF@PM?$AA@   000000018001ba98     libucrt:nlsdata.obj
 0002:00001aa0       ??_C@_08BPBNCDIB@MM?1dd?1yy?$AA@ 000000018001baa0     libucrt:nlsdata.obj
 0002:00001ab0       ??_C@_0BE@CKGJFCPC@dddd?0?5MMMM?5dd?0?5yyyy?$AA@ 000000018001bab0     libucrt:nlsdata.obj
 0002:00001ac8       ??_C@_08JCCMCCIL@HH?3mm?3ss?$AA@ 000000018001bac8     libucrt:nlsdata.obj
 0002:00001ad8       ??_C@_17MBGCMIPB@?$AAS?$AAu?$AAn?$AA?$AA@ 000000018001bad8     libucrt:nlsdata.obj
 0002:00001ae0       ??_C@_17KBOMKBF@?$AAM?$AAo?$AAn?$AA?$AA@ 000000018001bae0     libucrt:nlsdata.obj
 0002:00001ae8       ??_C@_17BMKGEGOJ@?$AAT?$AAu?$AAe?$AA?$AA@ 000000018001bae8     libucrt:nlsdata.obj
 0002:00001af0       ??_C@_17CJEDCEPE@?$AAW?$AAe?$AAd?$AA?$AA@ 000000018001baf0     libucrt:nlsdata.obj
 0002:00001af8       ??_C@_17PDPHAADD@?$AAT?$AAh?$AAu?$AA?$AA@ 000000018001baf8     libucrt:nlsdata.obj
 0002:00001b00       ??_C@_17HFOLPPLP@?$AAF?$AAr?$AAi?$AA?$AA@ 000000018001bb00     libucrt:nlsdata.obj
 0002:00001b08       ??_C@_17GGIBDPIH@?$AAS?$AAa?$AAt?$AA?$AA@ 000000018001bb08     libucrt:nlsdata.obj
 0002:00001b10       ??_C@_1O@IHNHDHPB@?$AAS?$AAu?$AAn?$AAd?$AAa?$AAy?$AA?$AA@ 000000018001bb10     libucrt:nlsdata.obj
 0002:00001b20       ??_C@_1O@MMNBFLIA@?$AAM?$AAo?$AAn?$AAd?$AAa?$AAy?$AA?$AA@ 000000018001bb20     libucrt:nlsdata.obj
 0002:00001b30       ??_C@_1BA@ENFBFFEK@?$AAT?$AAu?$AAe?$AAs?$AAd?$AAa?$AAy?$AA?$AA@ 000000018001bb30     libucrt:nlsdata.obj
 0002:00001b40       ??_C@_1BE@EBOGMDOH@?$AAW?$AAe?$AAd?$AAn?$AAe?$AAs?$AAd?$AAa?$AAy?$AA?$AA@ 000000018001bb40     libucrt:nlsdata.obj
 0002:00001b58       ??_C@_1BC@HHMNLIHE@?$AAT?$AAh?$AAu?$AAr?$AAs?$AAd?$AAa?$AAy?$AA?$AA@ 000000018001bb58     libucrt:nlsdata.obj
 0002:00001b70       ??_C@_1O@PDICJHAG@?$AAF?$AAr?$AAi?$AAd?$AAa?$AAy?$AA?$AA@ 000000018001bb70     libucrt:nlsdata.obj
 0002:00001b80       ??_C@_1BC@ENMNNPAJ@?$AAS?$AAa?$AAt?$AAu?$AAr?$AAd?$AAa?$AAy?$AA?$AA@ 000000018001bb80     libucrt:nlsdata.obj
 0002:00001b98       ??_C@_17DKNBKCHM@?$AAJ?$AAa?$AAn?$AA?$AA@ 000000018001bb98     libucrt:nlsdata.obj
 0002:00001ba0       ??_C@_17LMDJEKJN@?$AAF?$AAe?$AAb?$AA?$AA@ 000000018001bba0     libucrt:nlsdata.obj
 0002:00001ba8       ??_C@_17CKNLEDEC@?$AAM?$AAa?$AAr?$AA?$AA@ 000000018001bba8     libucrt:nlsdata.obj
 0002:00001bb0       ??_C@_17LFPOIHDD@?$AAA?$AAp?$AAr?$AA?$AA@ 000000018001bbb0     libucrt:nlsdata.obj
 0002:00001bb8       ??_C@_17PNNKMEED@?$AAM?$AAa?$AAy?$AA?$AA@ 000000018001bbb8     libucrt:nlsdata.obj
 0002:00001bc0       ??_C@_17KCJGOCPB@?$AAJ?$AAu?$AAn?$AA?$AA@ 000000018001bbc0     libucrt:nlsdata.obj
 0002:00001bc8       ??_C@_17IJPCKHK@?$AAJ?$AAu?$AAl?$AA?$AA@ 000000018001bbc8     libucrt:nlsdata.obj
 0002:00001bd0       ??_C@_17ICPELBCN@?$AAA?$AAu?$AAg?$AA?$AA@ 000000018001bbd0     libucrt:nlsdata.obj
 0002:00001bd8       ??_C@_17HCHCOKMG@?$AAS?$AAe?$AAp?$AA?$AA@ 000000018001bbd8     libucrt:nlsdata.obj
 0002:00001be0       ??_C@_17FNLKOI@?$AAO?$AAc?$AAt?$AA?$AA@ 000000018001bbe0     libucrt:nlsdata.obj
 0002:00001be8       ??_C@_17BBDMLCIG@?$AAN?$AAo?$AAv?$AA?$AA@ 000000018001bbe8     libucrt:nlsdata.obj
 0002:00001bf0       ??_C@_17EGKACKIF@?$AAD?$AAe?$AAc?$AA?$AA@ 000000018001bbf0     libucrt:nlsdata.obj
 0002:00001bf8       ??_C@_1BA@EFMEIEBA@?$AAJ?$AAa?$AAn?$AAu?$AAa?$AAr?$AAy?$AA?$AA@ 000000018001bbf8     libucrt:nlsdata.obj
 0002:00001c08       ??_C@_1BC@JGDDFFAM@?$AAF?$AAe?$AAb?$AAr?$AAu?$AAa?$AAr?$AAy?$AA?$AA@ 000000018001bc08     libucrt:nlsdata.obj
 0002:00001c20       ??_C@_1M@IKEENEDF@?$AAM?$AAa?$AAr?$AAc?$AAh?$AA?$AA@ 000000018001bc20     libucrt:nlsdata.obj
 0002:00001c30       ??_C@_1M@GJNLMHFD@?$AAA?$AAp?$AAr?$AAi?$AAl?$AA?$AA@ 000000018001bc30     libucrt:nlsdata.obj
 0002:00001c40       ??_C@_19EPFLPGAP@?$AAJ?$AAu?$AAn?$AAe?$AA?$AA@ 000000018001bc40     libucrt:nlsdata.obj
 0002:00001c50       ??_C@_19BIFMLPCD@?$AAJ?$AAu?$AAl?$AAy?$AA?$AA@ 000000018001bc50     libucrt:nlsdata.obj
 0002:00001c60       ??_C@_1O@PAHLKOAC@?$AAA?$AAu?$AAg?$AAu?$AAs?$AAt?$AA?$AA@ 000000018001bc60     libucrt:nlsdata.obj
 0002:00001c70       ??_C@_1BE@DKAAMBJL@?$AAS?$AAe?$AAp?$AAt?$AAe?$AAm?$AAb?$AAe?$AAr?$AA?$AA@ 000000018001bc70     libucrt:nlsdata.obj
 0002:00001c88       ??_C@_1BA@EPANDLNG@?$AAO?$AAc?$AAt?$AAo?$AAb?$AAe?$AAr?$AA?$AA@ 000000018001bc88     libucrt:nlsdata.obj
 0002:00001c98       ??_C@_1BC@BGLIFPF@?$AAN?$AAo?$AAv?$AAe?$AAm?$AAb?$AAe?$AAr?$AA?$AA@ 000000018001bc98     libucrt:nlsdata.obj
 0002:00001cb0       ??_C@_1BC@FEMKIFH@?$AAD?$AAe?$AAc?$AAe?$AAm?$AAb?$AAe?$AAr?$AA?$AA@ 000000018001bcb0     libucrt:nlsdata.obj
 0002:00001cc4       ??_C@_15ODEHAHHF@?$AAA?$AAM?$AA?$AA@ 000000018001bcc4     libucrt:nlsdata.obj
 0002:00001ccc       ??_C@_15CLMNNGEL@?$AAP?$AAM?$AA?$AA@ 000000018001bccc     libucrt:nlsdata.obj
 0002:00001cd8       ??_C@_1BC@IEBCMHCM@?$AAM?$AAM?$AA?1?$AAd?$AAd?$AA?1?$AAy?$AAy?$AA?$AA@ 000000018001bcd8     libucrt:nlsdata.obj
 0002:00001cf0       ??_C@_1CI@KNAKOEBC@?$AAd?$AAd?$AAd?$AAd?$AA?0?$AA?5?$AAM?$AAM?$AAM?$AAM?$AA?5?$AAd?$AAd?$AA?0?$AA?5?$AAy?$AAy?$AAy?$AAy?$AA?$AA@ 000000018001bcf0     libucrt:nlsdata.obj
 0002:00001d18       ??_C@_1BC@GDGBMEMK@?$AAH?$AAH?$AA?3?$AAm?$AAm?$AA?3?$AAs?$AAs?$AA?$AA@ 000000018001bd18     libucrt:nlsdata.obj
 0002:00001d30       ??_C@_1M@BMHNFIME@?$AAe?$AAn?$AA?9?$AAU?$AAS?$AA?$AA@ 000000018001bd30     libucrt:nlsdata.obj
 0002:00001d40       __newctype                 000000018001bd40     libucrt:ctype.obj
 0002:00002040       __newclmap                 000000018001c040     libucrt:ctype.obj
 0002:000021c0       __newcumap                 000000018001c1c0     libucrt:ctype.obj
 0002:000023e0       ??_C@_1EA@JGEFHKEI@?$AAa?$AAp?$AAi?$AA?9?$AAm?$AAs?$AA?9?$AAw?$AAi?$AAn?$AA?9?$AAc?$AAo?$AAr?$AAe?$AA?9?$AAd?$AAa?$AAt?$AAe?$AAt?$AAi?$AAm?$AAe?$AA?9?$AAl?$AA1?$AA?9?$AA1?$AA?9?$AA1?$AA?$AA@ 000000018001c3e0     libucrt:winapi_thunks.obj
 0002:00002420       ??_C@_1DI@IJCEHOCB@?$AAa?$AAp?$AAi?$AA?9?$AAm?$AAs?$AA?9?$AAw?$AAi?$AAn?$AA?9?$AAc?$AAo?$AAr?$AAe?$AA?9?$AAf?$AAi?$AAl?$AAe?$AA?9?$AAl?$AA1?$AA?9?$AA2?$AA?9?$AA2?$AA?$AA@ 000000018001c420     libucrt:winapi_thunks.obj
 0002:00002460       ??_C@_1EI@MPIAOHOC@?$AAa?$AAp?$AAi?$AA?9?$AAm?$AAs?$AA?9?$AAw?$AAi?$AAn?$AA?9?$AAc?$AAo?$AAr?$AAe?$AA?9?$AAl?$AAo?$AAc?$AAa?$AAl?$AAi?$AAz?$AAa?$AAt?$AAi?$AAo?$AAn?$AA?9?$AAl?$AA1?$AA?9@ 000000018001c460     libucrt:winapi_thunks.obj
 0002:000024b0       ??_C@_1FK@FPHCKFIE@?$AAa?$AAp?$AAi?$AA?9?$AAm?$AAs?$AA?9?$AAw?$AAi?$AAn?$AA?9?$AAc?$AAo?$AAr?$AAe?$AA?9?$AAl?$AAo?$AAc?$AAa?$AAl?$AAi?$AAz?$AAa?$AAt?$AAi?$AAo?$AAn?$AA?9?$AAo?$AAb?$AAs@ 000000018001c4b0     libucrt:winapi_thunks.obj
 0002:00002510       ??_C@_1EM@DILCGIIO@?$AAa?$AAp?$AAi?$AA?9?$AAm?$AAs?$AA?9?$AAw?$AAi?$AAn?$AA?9?$AAc?$AAo?$AAr?$AAe?$AA?9?$AAp?$AAr?$AAo?$AAc?$AAe?$AAs?$AAs?$AAt?$AAh?$AAr?$AAe?$AAa?$AAd?$AAs?$AA?9?$AAl@ 000000018001c510     libucrt:winapi_thunks.obj
 0002:00002560       ??_C@_1DM@LNCGDDPN@?$AAa?$AAp?$AAi?$AA?9?$AAm?$AAs?$AA?9?$AAw?$AAi?$AAn?$AA?9?$AAc?$AAo?$AAr?$AAe?$AA?9?$AAs?$AAt?$AAr?$AAi?$AAn?$AAg?$AA?9?$AAl?$AA1?$AA?9?$AA1?$AA?9?$AA0?$AA?$AA@ 000000018001c560     libucrt:winapi_thunks.obj
 0002:000025a0       ??_C@_1DO@FPAPJEMD@?$AAa?$AAp?$AAi?$AA?9?$AAm?$AAs?$AA?9?$AAw?$AAi?$AAn?$AA?9?$AAc?$AAo?$AAr?$AAe?$AA?9?$AAs?$AAy?$AAs?$AAi?$AAn?$AAf?$AAo?$AA?9?$AAl?$AA1?$AA?9?$AA2?$AA?9?$AA1?$AA?$AA@ 000000018001c5a0     libucrt:winapi_thunks.obj
 0002:000025e0       ??_C@_1DK@NDHNAHIO@?$AAa?$AAp?$AAi?$AA?9?$AAm?$AAs?$AA?9?$AAw?$AAi?$AAn?$AA?9?$AAc?$AAo?$AAr?$AAe?$AA?9?$AAw?$AAi?$AAn?$AAr?$AAt?$AA?9?$AAl?$AA1?$AA?9?$AA1?$AA?9?$AA0?$AA?$AA@ 000000018001c5e0     libucrt:winapi_thunks.obj
 0002:00002620       ??_C@_1DM@KGHDGBCM@?$AAa?$AAp?$AAi?$AA?9?$AAm?$AAs?$AA?9?$AAw?$AAi?$AAn?$AA?9?$AAc?$AAo?$AAr?$AAe?$AA?9?$AAx?$AAs?$AAt?$AAa?$AAt?$AAe?$AA?9?$AAl?$AA2?$AA?9?$AA1?$AA?9?$AA0?$AA?$AA@ 000000018001c620     libucrt:winapi_thunks.obj
 0002:00002660       ??_C@_1EO@IJIOEFOH@?$AAa?$AAp?$AAi?$AA?9?$AAm?$AAs?$AA?9?$AAw?$AAi?$AAn?$AA?9?$AAr?$AAt?$AAc?$AAo?$AAr?$AAe?$AA?9?$AAn?$AAt?$AAu?$AAs?$AAe?$AAr?$AA?9?$AAw?$AAi?$AAn?$AAd?$AAo?$AAw?$AA?9@ 000000018001c660     libucrt:winapi_thunks.obj
 0002:000026b0       ??_C@_1FG@HHGEKANL@?$AAa?$AAp?$AAi?$AA?9?$AAm?$AAs?$AA?9?$AAw?$AAi?$AAn?$AA?9?$AAs?$AAe?$AAc?$AAu?$AAr?$AAi?$AAt?$AAy?$AA?9?$AAs?$AAy?$AAs?$AAt?$AAe?$AAm?$AAf?$AAu?$AAn?$AAc?$AAt?$AAi@ 000000018001c6b0     libucrt:winapi_thunks.obj
 0002:00002710       ??_C@_1EG@DBIOJECG@?$AAe?$AAx?$AAt?$AA?9?$AAm?$AAs?$AA?9?$AAw?$AAi?$AAn?$AA?9?$AAn?$AAt?$AAu?$AAs?$AAe?$AAr?$AA?9?$AAd?$AAi?$AAa?$AAl?$AAo?$AAg?$AAb?$AAo?$AAx?$AA?9?$AAl?$AA1?$AA?9?$AA1@ 000000018001c710     libucrt:winapi_thunks.obj
 0002:00002760       ??_C@_1EO@FIHMJCLF@?$AAe?$AAx?$AAt?$AA?9?$AAm?$AAs?$AA?9?$AAw?$AAi?$AAn?$AA?9?$AAn?$AAt?$AAu?$AAs?$AAe?$AAr?$AA?9?$AAw?$AAi?$AAn?$AAd?$AAo?$AAw?$AAs?$AAt?$AAa?$AAt?$AAi?$AAo?$AAn?$AA?9@ 000000018001c760     libucrt:winapi_thunks.obj
 0002:000027b0       ??_C@_1BC@DNHGCMLG@?$AAa?$AAd?$AAv?$AAa?$AAp?$AAi?$AA3?$AA2?$AA?$AA@ 000000018001c7b0     libucrt:winapi_thunks.obj
 0002:000027c8       ??_C@_1M@OAIMIKLP@?$AAn?$AAt?$AAd?$AAl?$AAl?$AA?$AA@ 000000018001c7c8     libucrt:winapi_thunks.obj
 0002:000027e0       ??_C@_1EG@DPGNFKGC@?$AAa?$AAp?$AAi?$AA?9?$AAm?$AAs?$AA?9?$AAw?$AAi?$AAn?$AA?9?$AAa?$AAp?$AAp?$AAm?$AAo?$AAd?$AAe?$AAl?$AA?9?$AAr?$AAu?$AAn?$AAt?$AAi?$AAm?$AAe?$AA?9?$AAl?$AA1?$AA?9?$AA1@ 000000018001c7e0     libucrt:winapi_thunks.obj
 0002:00002828       ??_C@_1O@BCCLBEOE@?$AAu?$AAs?$AAe?$AAr?$AA3?$AA2?$AA?$AA@ 000000018001c828     libucrt:winapi_thunks.obj
 0002:00002868       ??_C@_0O@KKBNKAPF@LCMapStringEx?$AA@ 000000018001c868     libucrt:winapi_thunks.obj
 0002:00002880       ??_C@_0BB@HBDEELFH@LocaleNameToLCID?$AA@ 000000018001c880     libucrt:winapi_thunks.obj
 0002:00002898       ??_C@_0CF@OJOFEIGO@AppPolicyGetProcessTerminationMe@ 000000018001c898     libucrt:winapi_thunks.obj
 0002:000028c0       ??_C@_03OEIAHPBN@INF?$AA@  000000018001c8c0     libucrt:cvt.obj
 0002:000028c4       ??_C@_03OJHLLCGB@inf?$AA@  000000018001c8c4     libucrt:cvt.obj
 0002:000028c8       ??_C@_03LKNCIKJB@NAN?$AA@  000000018001c8c8     libucrt:cvt.obj
 0002:000028cc       ??_C@_03LHCJEHON@nan?$AA@  000000018001c8cc     libucrt:cvt.obj
 0002:000028d0       ??_C@_09OFJJIMPC@NAN?$CISNAN?$CJ?$AA@ 000000018001c8d0     libucrt:cvt.obj
 0002:000028e0       ??_C@_09IPFBKMDL@nan?$CIsnan?$CJ?$AA@ 000000018001c8e0     libucrt:cvt.obj
 0002:000028f0       ??_C@_08IKHNHAJ@NAN?$CIIND?$CJ?$AA@ 000000018001c8f0     libucrt:cvt.obj
 0002:00002900       ??_C@_08OFCDMILK@nan?$CIind?$CJ?$AA@ 000000018001c900     libucrt:cvt.obj
 0002:0000290c       ??_C@_05KLBDPFGC@e?$CL000?$AA@ 000000018001c90c     libucrt:cvt.obj
 0002:00002938       ??_C@_1M@HPNHIDJI@?$AAj?$AAa?$AA?9?$AAJ?$AAP?$AA?$AA@ 000000018001c938     libucrt:mbctype.obj
 0002:00002948       ??_C@_1M@BIBDDEMK@?$AAz?$AAh?$AA?9?$AAC?$AAN?$AA?$AA@ 000000018001c948     libucrt:mbctype.obj
 0002:00002958       ??_C@_1M@JLOOOEGK@?$AAk?$AAo?$AA?9?$AAK?$AAR?$AA?$AA@ 000000018001c958     libucrt:mbctype.obj
 0002:00002968       ??_C@_1M@CLNBBOPM@?$AAz?$AAh?$AA?9?$AAT?$AAW?$AA?$AA@ 000000018001c968     libucrt:mbctype.obj
 0002:00002974       ??_C@_15PJPFLCCM@?$AAu?$AAk?$AA?$AA@ 000000018001c974     libucrt:get_qualified_locale.obj
 0002:000037c0       ??_C@_15EMKDOKLE@?$AAa?$AAr?$AA?$AA@ 000000018001d7c0     libucrt:lcidtoname_downlevel.obj
 0002:000037c8       ??_C@_15KNPADPLH@?$AAb?$AAg?$AA?$AA@ 000000018001d7c8     libucrt:lcidtoname_downlevel.obj
 0002:000037d0       ??_C@_15EDMHLDMO@?$AAc?$AAa?$AA?$AA@ 000000018001d7d0     libucrt:lcidtoname_downlevel.obj
 0002:000037d8       ??_C@_1O@BPEAJADD@?$AAz?$AAh?$AA?9?$AAC?$AAH?$AAS?$AA?$AA@ 000000018001d7d8     libucrt:lcidtoname_downlevel.obj
 0002:000037e8       ??_C@_15LJNHCMNK@?$AAc?$AAs?$AA?$AA@ 000000018001d7e8     libucrt:lcidtoname_downlevel.obj
 0002:000037f0       ??_C@_15FOMCIDHG@?$AAd?$AAa?$AA?$AA@ 000000018001d7f0     libucrt:lcidtoname_downlevel.obj
 0002:000037f8       ??_C@_15NBKABECB@?$AAd?$AAe?$AA?$AA@ 000000018001d7f8     libucrt:lcidtoname_downlevel.obj
 0002:00003800       ??_C@_15GHPEIIAO@?$AAe?$AAl?$AA?$AA@ 000000018001d800     libucrt:lcidtoname_downlevel.obj
 0002:00003808       ??_C@_15MNPNEAIF@?$AAe?$AAn?$AA?$AA@ 000000018001d808     libucrt:lcidtoname_downlevel.obj
 0002:00003810       ??_C@_15GPIOMPMH@?$AAe?$AAs?$AA?$AA@ 000000018001d810     libucrt:lcidtoname_downlevel.obj
 0002:00003818       ??_C@_15NGLOAKJC@?$AAf?$AAi?$AA?$AA@ 000000018001d818     libucrt:lcidtoname_downlevel.obj
 0002:00003820       ??_C@_15FBKGNKAM@?$AAf?$AAr?$AA?$AA@ 000000018001d820     libucrt:lcidtoname_downlevel.obj
 0002:00003828       ??_C@_15KGGCNEFK@?$AAh?$AAe?$AA?$AA@ 000000018001d828     libucrt:lcidtoname_downlevel.obj
 0002:00003830       ??_C@_15PGHLIDMF@?$AAh?$AAu?$AA?$AA@ 000000018001d830     libucrt:lcidtoname_downlevel.obj
 0002:00003838       ??_C@_15BIEMAPLM@?$AAi?$AAs?$AA?$AA@ 000000018001d838     libucrt:lcidtoname_downlevel.obj
 0002:00003840       ??_C@_15IFJLDHAF@?$AAi?$AAt?$AA?$AA@ 000000018001d840     libucrt:lcidtoname_downlevel.obj
 0002:00003848       ??_C@_15GEMIOCAG@?$AAj?$AAa?$AA?$AA@ 000000018001d848     libucrt:lcidtoname_downlevel.obj
 0002:00003850       ??_C@_15EPELEGJA@?$AAk?$AAo?$AA?$AA@ 000000018001d850     libucrt:lcidtoname_downlevel.obj
 0002:00003858       ??_C@_15NDDHIMN@?$AAn?$AAl?$AA?$AA@ 000000018001d858     libucrt:lcidtoname_downlevel.obj
 0002:00003860       ??_C@_15BPIGNHCD@?$AAn?$AAo?$AA?$AA@ 000000018001d860     libucrt:lcidtoname_downlevel.obj
 0002:00003868       ??_C@_15DEOPBLCG@?$AAp?$AAl?$AA?$AA@ 000000018001d868     libucrt:lcidtoname_downlevel.obj
 0002:00003870       ??_C@_15KBECGEFG@?$AAp?$AAt?$AA?$AA@ 000000018001d870     libucrt:lcidtoname_downlevel.obj
 0002:00003878       ??_C@_15GLJCBFMD@?$AAr?$AAo?$AA?$AA@ 000000018001d878     libucrt:lcidtoname_downlevel.obj
 0002:00003880       ??_C@_15FEDGKCDI@?$AAr?$AAu?$AA?$AA@ 000000018001d880     libucrt:lcidtoname_downlevel.obj
 0002:00003888       ??_C@_15GLKMLLHM@?$AAh?$AAr?$AA?$AA@ 000000018001d888     libucrt:lcidtoname_downlevel.obj
 0002:00003890       ??_C@_15CPKMFBDB@?$AAs?$AAk?$AA?$AA@ 000000018001d890     libucrt:lcidtoname_downlevel.obj
 0002:00003898       ??_C@_15BAAIOGMK@?$AAs?$AAq?$AA?$AA@ 000000018001d898     libucrt:lcidtoname_downlevel.obj
 0002:000038a0       ??_C@_15INNPNOHD@?$AAs?$AAv?$AA?$AA@ 000000018001d8a0     libucrt:lcidtoname_downlevel.obj
 0002:000038a8       ??_C@_15CABMMOGH@?$AAt?$AAh?$AA?$AA@ 000000018001d8a8     libucrt:lcidtoname_downlevel.obj
 0002:000038b0       ??_C@_15BPLIHJJM@?$AAt?$AAr?$AA?$AA@ 000000018001d8b0     libucrt:lcidtoname_downlevel.obj
 0002:000038b8       ??_C@_15NEOEKKDJ@?$AAu?$AAr?$AA?$AA@ 000000018001d8b8     libucrt:lcidtoname_downlevel.obj
 0002:000038c0       ??_C@_15NFICGAJK@?$AAi?$AAd?$AA?$AA@ 000000018001d8c0     libucrt:lcidtoname_downlevel.obj
 0002:000038c8       ??_C@_15HPJPHDM@?$AAb?$AAe?$AA?$AA@ 000000018001d8c8     libucrt:lcidtoname_downlevel.obj
 0002:000038d0       ??_C@_15LCHLGJII@?$AAs?$AAl?$AA?$AA@ 000000018001d8d0     libucrt:lcidtoname_downlevel.obj
 0002:000038d8       ??_C@_15PCFJPHHO@?$AAe?$AAt?$AA?$AA@ 000000018001d8d8     libucrt:lcidtoname_downlevel.obj
 0002:000038e0       ??_C@_15HPFPGODN@?$AAl?$AAv?$AA?$AA@ 000000018001d8e0     libucrt:lcidtoname_downlevel.obj
 0002:000038e8       ??_C@_15NFFGKGLG@?$AAl?$AAt?$AA?$AA@ 000000018001d8e8     libucrt:lcidtoname_downlevel.obj
 0002:000038f0       ??_C@_15BDAKCCHN@?$AAf?$AAa?$AA?$AA@ 000000018001d8f0     libucrt:lcidtoname_downlevel.obj
 0002:000038f8       ??_C@_15NFGIAIAJ@?$AAv?$AAi?$AA?$AA@ 000000018001d8f8     libucrt:lcidtoname_downlevel.obj
 0002:00003900       ??_C@_15LMKNDMHN@?$AAh?$AAy?$AA?$AA@ 000000018001d900     libucrt:lcidtoname_downlevel.obj
 0002:00003908       ??_C@_15IJBHMCFL@?$AAa?$AAz?$AA?$AA@ 000000018001d908     libucrt:lcidtoname_downlevel.obj
 0002:00003910       ??_C@_15EKOFJABL@?$AAe?$AAu?$AA?$AA@ 000000018001d910     libucrt:lcidtoname_downlevel.obj
 0002:00003918       ??_C@_15BGHADCNK@?$AAm?$AAk?$AA?$AA@ 000000018001d918     libucrt:lcidtoname_downlevel.obj
 0002:00003920       ??_C@_15JDNICKHM@?$AAa?$AAf?$AA?$AA@ 000000018001d920     libucrt:lcidtoname_downlevel.obj
 0002:00003928       ??_C@_15KPJEDBKD@?$AAk?$AAa?$AA?$AA@ 000000018001d928     libucrt:lcidtoname_downlevel.obj
 0002:00003930       ??_C@_15PDNFFFEO@?$AAf?$AAo?$AA?$AA@ 000000018001d930     libucrt:lcidtoname_downlevel.obj
 0002:00003938       ??_C@_15OMLEGLOC@?$AAh?$AAi?$AA?$AA@ 000000018001d938     libucrt:lcidtoname_downlevel.obj
 0002:00003940       ??_C@_15IDNNENKK@?$AAm?$AAs?$AA?$AA@ 000000018001d940     libucrt:lcidtoname_downlevel.obj
 0002:00003948       ??_C@_15MACJNBMH@?$AAk?$AAk?$AA?$AA@ 000000018001d948     libucrt:lcidtoname_downlevel.obj
 0002:00003950       ??_C@_15DKDJEOND@?$AAk?$AAy?$AA?$AA@ 000000018001d950     libucrt:lcidtoname_downlevel.obj
 0002:00003958       ??_C@_15DFGDLJBG@?$AAs?$AAw?$AA?$AA@ 000000018001d958     libucrt:lcidtoname_downlevel.obj
 0002:00003960       ??_C@_15BBFAICNG@?$AAu?$AAz?$AA?$AA@ 000000018001d960     libucrt:lcidtoname_downlevel.obj
 0002:00003968       ??_C@_15DKNDCGEA@?$AAt?$AAt?$AA?$AA@ 000000018001d968     libucrt:lcidtoname_downlevel.obj
 0002:00003970       ??_C@_15MGIFMDPL@?$AAp?$AAa?$AA?$AA@ 000000018001d970     libucrt:lcidtoname_downlevel.obj
 0002:00003978       ??_C@_15HCNDBBA@?$AAg?$AAu?$AA?$AA@ 000000018001d978     libucrt:lcidtoname_downlevel.obj
 0002:00003980       ??_C@_15FNBEIBON@?$AAt?$AAa?$AA?$AA@ 000000018001d980     libucrt:lcidtoname_downlevel.obj
 0002:00003988       ??_C@_15NCHGBGLK@?$AAt?$AAe?$AA?$AA@ 000000018001d988     libucrt:lcidtoname_downlevel.obj
 0002:00003990       ??_C@_15PHPHCBPF@?$AAk?$AAn?$AA?$AA@ 000000018001d990     libucrt:lcidtoname_downlevel.obj
 0002:00003998       ??_C@_15DLGBCKMP@?$AAm?$AAr?$AA?$AA@ 000000018001d998     libucrt:lcidtoname_downlevel.obj
 0002:000039a0       ??_C@_15EABBLBFF@?$AAs?$AAa?$AA?$AA@ 000000018001d9a0     libucrt:lcidtoname_downlevel.obj
 0002:000039a8       ??_C@_15CBKOMCOI@?$AAm?$AAn?$AA?$AA@ 000000018001d9a8     libucrt:lcidtoname_downlevel.obj
 0002:000039b0       ??_C@_15CKDMCJAF@?$AAg?$AAl?$AA?$AA@ 000000018001d9b0     libucrt:lcidtoname_downlevel.obj
 0002:000039b8       ??_C@_17CNJFBPG@?$AAk?$AAo?$AAk?$AA?$AA@ 000000018001d9b8     libucrt:lcidtoname_downlevel.obj
 0002:000039c0       ??_C@_17FFBJICPL@?$AAs?$AAy?$AAr?$AA?$AA@ 000000018001d9c0     libucrt:lcidtoname_downlevel.obj
 0002:000039c8       ??_C@_17KPNDCPAF@?$AAd?$AAi?$AAv?$AA?$AA@ 000000018001d9c8     libucrt:lcidtoname_downlevel.obj
 0002:000039d0       ??_C@_11LOCGONAA@?$AA?$AA@ 000000018001d9d0     libucrt:lcidtoname_downlevel.obj
 0002:000039d8       ??_C@_1M@OKAHONE@?$AAa?$AAr?$AA?9?$AAS?$AAA?$AA?$AA@ 000000018001d9d8     libucrt:lcidtoname_downlevel.obj
 0002:000039e8       ??_C@_1M@FFFIGIGK@?$AAb?$AAg?$AA?9?$AAB?$AAG?$AA?$AA@ 000000018001d9e8     libucrt:lcidtoname_downlevel.obj
 0002:000039f8       ??_C@_1M@BJNKEDC@?$AAc?$AAa?$AA?9?$AAE?$AAS?$AA?$AA@ 000000018001d9f8     libucrt:lcidtoname_downlevel.obj
 0002:00003a08       ??_C@_1M@IJJHFJHA@?$AAc?$AAs?$AA?9?$AAC?$AAZ?$AA?$AA@ 000000018001da08     libucrt:lcidtoname_downlevel.obj
 0002:00003a18       ??_C@_1M@CLPEOBGI@?$AAd?$AAa?$AA?9?$AAD?$AAK?$AA?$AA@ 000000018001da18     libucrt:lcidtoname_downlevel.obj
 0002:00003a28       ??_C@_1M@MCMADGCB@?$AAd?$AAe?$AA?9?$AAD?$AAE?$AA?$AA@ 000000018001da28     libucrt:lcidtoname_downlevel.obj
 0002:00003a38       ??_C@_1M@OOCKEMAM@?$AAe?$AAl?$AA?9?$AAG?$AAR?$AA?$AA@ 000000018001da38     libucrt:lcidtoname_downlevel.obj
 0002:00003a48       ??_C@_1M@DDNJFGID@?$AAf?$AAi?$AA?9?$AAF?$AAI?$AA?$AA@ 000000018001da48     libucrt:lcidtoname_downlevel.obj
 0002:00003a58       ??_C@_1M@GLIPPMAC@?$AAf?$AAr?$AA?9?$AAF?$AAR?$AA?$AA@ 000000018001da58     libucrt:lcidtoname_downlevel.obj
 0002:00003a68       ??_C@_1M@GFMCHPE@?$AAh?$AAe?$AA?9?$AAI?$AAL?$AA?$AA@ 000000018001da68     libucrt:lcidtoname_downlevel.obj
 0002:00003a78       ??_C@_1M@MHLPGNKM@?$AAh?$AAu?$AA?9?$AAH?$AAU?$AA?$AA@ 000000018001da78     libucrt:lcidtoname_downlevel.obj
 0002:00003a88       ??_C@_1M@LPDDNNPN@?$AAi?$AAs?$AA?9?$AAI?$AAS?$AA?$AA@ 000000018001da88     libucrt:lcidtoname_downlevel.obj
 0002:00003a98       ??_C@_1M@MADIPODN@?$AAi?$AAt?$AA?9?$AAI?$AAT?$AA?$AA@ 000000018001da98     libucrt:lcidtoname_downlevel.obj
 0002:00003aa8       ??_C@_1M@IHBJJGG@?$AAn?$AAl?$AA?9?$AAN?$AAL?$AA?$AA@ 000000018001daa8     libucrt:lcidtoname_downlevel.obj
 0002:00003ab8       ??_C@_1M@EANAGDL@?$AAn?$AAb?$AA?9?$AAN?$AAO?$AA?$AA@ 000000018001dab8     libucrt:lcidtoname_downlevel.obj
 0002:00003ac8       ??_C@_1M@NEIEMEGP@?$AAp?$AAl?$AA?9?$AAP?$AAL?$AA?$AA@ 000000018001dac8     libucrt:lcidtoname_downlevel.obj
 0002:00003ad8       ??_C@_1M@BOCFIGEP@?$AAp?$AAt?$AA?9?$AAB?$AAR?$AA?$AA@ 000000018001dad8     libucrt:lcidtoname_downlevel.obj
 0002:00003ae8       ??_C@_1M@IMPFOPBG@?$AAr?$AAo?$AA?9?$AAR?$AAO?$AA?$AA@ 000000018001dae8     libucrt:lcidtoname_downlevel.obj
 0002:00003af8       ??_C@_1M@IDNNEJMM@?$AAr?$AAu?$AA?9?$AAR?$AAU?$AA?$AA@ 000000018001daf8     libucrt:lcidtoname_downlevel.obj
 0002:00003b08       ??_C@_1M@LILEEOGM@?$AAh?$AAr?$AA?9?$AAH?$AAR?$AA?$AA@ 000000018001db08     libucrt:lcidtoname_downlevel.obj
 0002:00003b18       ??_C@_1M@FKIFEHPB@?$AAs?$AAk?$AA?9?$AAS?$AAK?$AA?$AA@ 000000018001db18     libucrt:lcidtoname_downlevel.obj
 0002:00003b28       ??_C@_1M@LJMAMNPJ@?$AAs?$AAq?$AA?9?$AAA?$AAL?$AA?$AA@ 000000018001db28     libucrt:lcidtoname_downlevel.obj
 0002:00003b38       ??_C@_1M@GIAKDKJK@?$AAs?$AAv?$AA?9?$AAS?$AAE?$AA?$AA@ 000000018001db38     libucrt:lcidtoname_downlevel.obj
 0002:00003b48       ??_C@_1M@MKJKIKCL@?$AAt?$AAh?$AA?9?$AAT?$AAH?$AA?$AA@ 000000018001db48     libucrt:lcidtoname_downlevel.obj
 0002:00003b58       ??_C@_1M@MFLCCMPB@?$AAt?$AAr?$AA?9?$AAT?$AAR?$AA?$AA@ 000000018001db58     libucrt:lcidtoname_downlevel.obj
 0002:00003b68       ??_C@_1M@OIJHDKJN@?$AAu?$AAr?$AA?9?$AAP?$AAK?$AA?$AA@ 000000018001db68     libucrt:lcidtoname_downlevel.obj
 0002:00003b78       ??_C@_1M@LHIPCIEK@?$AAi?$AAd?$AA?9?$AAI?$AAD?$AA?$AA@ 000000018001db78     libucrt:lcidtoname_downlevel.obj
 0002:00003b88       ??_C@_1M@MFMOBGI@?$AAu?$AAk?$AA?9?$AAU?$AAA?$AA?$AA@ 000000018001db88     libucrt:lcidtoname_downlevel.obj
 0002:00003b98       ??_C@_1M@OBGLJIPL@?$AAb?$AAe?$AA?9?$AAB?$AAY?$AA?$AA@ 000000018001db98     libucrt:lcidtoname_downlevel.obj
 0002:00003ba8       ??_C@_1M@BCFAJEAD@?$AAs?$AAl?$AA?9?$AAS?$AAI?$AA?$AA@ 000000018001dba8     libucrt:lcidtoname_downlevel.obj
 0002:00003bb8       ??_C@_1M@FKFFEDDN@?$AAe?$AAt?$AA?9?$AAE?$AAE?$AA?$AA@ 000000018001dbb8     libucrt:lcidtoname_downlevel.obj
 0002:00003bc8       ??_C@_1M@KGKKAACI@?$AAl?$AAv?$AA?9?$AAL?$AAV?$AA?$AA@ 000000018001dbc8     libucrt:lcidtoname_downlevel.obj
 0002:00003bd8       ??_C@_1M@IFGBIJO@?$AAl?$AAt?$AA?9?$AAL?$AAT?$AA?$AA@ 000000018001dbd8     libucrt:lcidtoname_downlevel.obj
 0002:00003be8       ??_C@_1M@FGEAHEDM@?$AAf?$AAa?$AA?9?$AAI?$AAR?$AA?$AA@ 000000018001dbe8     libucrt:lcidtoname_downlevel.obj
 0002:00003bf8       ??_C@_1M@KBMAIBFN@?$AAv?$AAi?$AA?9?$AAV?$AAN?$AA?$AA@ 000000018001dbf8     libucrt:lcidtoname_downlevel.obj
 0002:00003c08       ??_C@_1M@GPCBKDJK@?$AAh?$AAy?$AA?9?$AAA?$AAM?$AA?$AA@ 000000018001dc08     libucrt:lcidtoname_downlevel.obj
 0002:00003c18       ??_C@_1BG@BECMDDJB@?$AAa?$AAz?$AA?9?$AAA?$AAZ?$AA?9?$AAL?$AAa?$AAt?$AAn?$AA?$AA@ 000000018001dc18     libucrt:lcidtoname_downlevel.obj
 0002:00003c30       ??_C@_1M@MAOFCAEA@?$AAe?$AAu?$AA?9?$AAE?$AAS?$AA?$AA@ 000000018001dc30     libucrt:lcidtoname_downlevel.obj
 0002:00003c40       ??_C@_1M@IGHABKPI@?$AAm?$AAk?$AA?9?$AAM?$AAK?$AA?$AA@ 000000018001dc40     libucrt:lcidtoname_downlevel.obj
 0002:00003c50       ??_C@_1M@IAIGNEJG@?$AAt?$AAn?$AA?9?$AAZ?$AAA?$AA?$AA@ 000000018001dc50     libucrt:lcidtoname_downlevel.obj
 0002:00003c60       ??_C@_1M@IIJCOJFA@?$AAx?$AAh?$AA?9?$AAZ?$AAA?$AA?$AA@ 000000018001dc60     libucrt:lcidtoname_downlevel.obj
 0002:00003c70       ??_C@_1M@LGPJHNJH@?$AAz?$AAu?$AA?9?$AAZ?$AAA?$AA?$AA@ 000000018001dc70     libucrt:lcidtoname_downlevel.obj
 0002:00003c80       ??_C@_1M@HOKAOIO@?$AAa?$AAf?$AA?9?$AAZ?$AAA?$AA?$AA@ 000000018001dc80     libucrt:lcidtoname_downlevel.obj
 0002:00003c90       ??_C@_1M@DPCLHLIE@?$AAk?$AAa?$AA?9?$AAG?$AAE?$AA?$AA@ 000000018001dc90     libucrt:lcidtoname_downlevel.obj
 0002:00003ca0       ??_C@_1M@BLKMHJBI@?$AAf?$AAo?$AA?9?$AAF?$AAO?$AA?$AA@ 000000018001dca0     libucrt:lcidtoname_downlevel.obj
 0002:00003cb0       ??_C@_1M@LGGJAPPB@?$AAh?$AAi?$AA?9?$AAI?$AAN?$AA?$AA@ 000000018001dcb0     libucrt:lcidtoname_downlevel.obj
 0002:00003cc0       ??_C@_1M@FIKPIHFE@?$AAm?$AAt?$AA?9?$AAM?$AAT?$AA?$AA@ 000000018001dcc0     libucrt:lcidtoname_downlevel.obj
 0002:00003cd0       ??_C@_1M@HEGGPBFA@?$AAs?$AAe?$AA?9?$AAN?$AAO?$AA?$AA@ 000000018001dcd0     libucrt:lcidtoname_downlevel.obj
 0002:00003ce0       ??_C@_1M@EIBJEEPA@?$AAm?$AAs?$AA?9?$AAM?$AAY?$AA?$AA@ 000000018001dce0     libucrt:lcidtoname_downlevel.obj
 0002:00003cf0       ??_C@_1M@FHLBGMPP@?$AAk?$AAk?$AA?9?$AAK?$AAZ?$AA?$AA@ 000000018001dcf0     libucrt:lcidtoname_downlevel.obj
 0002:00003d00       ??_C@_1M@NGJJLCGI@?$AAk?$AAy?$AA?9?$AAK?$AAG?$AA?$AA@ 000000018001dd00     libucrt:lcidtoname_downlevel.obj
 0002:00003d10       ??_C@_1M@GIENNBFC@?$AAs?$AAw?$AA?9?$AAK?$AAE?$AA?$AA@ 000000018001dd10     libucrt:lcidtoname_downlevel.obj
 0002:00003d20       ??_C@_1BG@NDGMJIMJ@?$AAu?$AAz?$AA?9?$AAU?$AAZ?$AA?9?$AAL?$AAa?$AAt?$AAn?$AA?$AA@ 000000018001dd20     libucrt:lcidtoname_downlevel.obj
 0002:00003d38       ??_C@_1M@IDCCIHBC@?$AAt?$AAt?$AA?9?$AAR?$AAU?$AA?$AA@ 000000018001dd38     libucrt:lcidtoname_downlevel.obj
 0002:00003d48       ??_C@_1M@LOICPMOJ@?$AAb?$AAn?$AA?9?$AAI?$AAN?$AA?$AA@ 000000018001dd48     libucrt:lcidtoname_downlevel.obj
 0002:00003d58       ??_C@_1M@KPKKNEAH@?$AAp?$AAa?$AA?9?$AAI?$AAN?$AA?$AA@ 000000018001dd58     libucrt:lcidtoname_downlevel.obj
 0002:00003d68       ??_C@_1M@PJGPPBOG@?$AAg?$AAu?$AA?9?$AAI?$AAN?$AA?$AA@ 000000018001dd68     libucrt:lcidtoname_downlevel.obj
 0002:00003d78       ??_C@_1M@KMKMOPHI@?$AAt?$AAa?$AA?9?$AAI?$AAN?$AA?$AA@ 000000018001dd78     libucrt:lcidtoname_downlevel.obj
 0002:00003d88       ??_C@_1M@KFEHEPAC@?$AAt?$AAe?$AA?9?$AAI?$AAN?$AA?$AA@ 000000018001dd88     libucrt:lcidtoname_downlevel.obj
 0002:00003d98       ??_C@_1M@CDCLMGHI@?$AAk?$AAn?$AA?9?$AAI?$AAN?$AA?$AA@ 000000018001dd98     libucrt:lcidtoname_downlevel.obj
 0002:00003da8       ??_C@_1M@MIODLDKF@?$AAm?$AAl?$AA?9?$AAI?$AAN?$AA?$AA@ 000000018001dda8     libucrt:lcidtoname_downlevel.obj
 0002:00003db8       ??_C@_1M@PBIEACPO@?$AAm?$AAr?$AA?9?$AAI?$AAN?$AA?$AA@ 000000018001ddb8     libucrt:lcidtoname_downlevel.obj
 0002:00003dc8       ??_C@_1M@NIDEAGPH@?$AAs?$AAa?$AA?9?$AAI?$AAN?$AA?$AA@ 000000018001ddc8     libucrt:lcidtoname_downlevel.obj
 0002:00003dd8       ??_C@_1M@FHIHCBIO@?$AAm?$AAn?$AA?9?$AAM?$AAN?$AA?$AA@ 000000018001ddd8     libucrt:lcidtoname_downlevel.obj
 0002:00003de8       ??_C@_1M@JAIJPENP@?$AAc?$AAy?$AA?9?$AAG?$AAB?$AA?$AA@ 000000018001dde8     libucrt:lcidtoname_downlevel.obj
 0002:00003df8       ??_C@_1M@PHGFBEPN@?$AAg?$AAl?$AA?9?$AAE?$AAS?$AA?$AA@ 000000018001ddf8     libucrt:lcidtoname_downlevel.obj
 0002:00003e08       ??_C@_1O@KPIPDNCP@?$AAk?$AAo?$AAk?$AA?9?$AAI?$AAN?$AA?$AA@ 000000018001de08     libucrt:lcidtoname_downlevel.obj
 0002:00003e18       ??_C@_1O@KNHJLDJA@?$AAs?$AAy?$AAr?$AA?9?$AAS?$AAY?$AA?$AA@ 000000018001de18     libucrt:lcidtoname_downlevel.obj
 0002:00003e28       ??_C@_1O@MKEKBLAH@?$AAd?$AAi?$AAv?$AA?9?$AAM?$AAV?$AA?$AA@ 000000018001de28     libucrt:lcidtoname_downlevel.obj
 0002:00003e38       ??_C@_1O@OHDCKDDF@?$AAq?$AAu?$AAz?$AA?9?$AAB?$AAO?$AA?$AA@ 000000018001de38     libucrt:lcidtoname_downlevel.obj
 0002:00003e48       ??_C@_1M@LEPJNLFD@?$AAn?$AAs?$AA?9?$AAZ?$AAA?$AA?$AA@ 000000018001de48     libucrt:lcidtoname_downlevel.obj
 0002:00003e58       ??_C@_1M@OMLEIIJB@?$AAm?$AAi?$AA?9?$AAN?$AAZ?$AA?$AA@ 000000018001de58     libucrt:lcidtoname_downlevel.obj
 0002:00003e68       ??_C@_1M@PMPEAILG@?$AAa?$AAr?$AA?9?$AAI?$AAQ?$AA?$AA@ 000000018001de68     libucrt:lcidtoname_downlevel.obj
 0002:00003e78       ??_C@_1M@CNKPNOEE@?$AAd?$AAe?$AA?9?$AAC?$AAH?$AA?$AA@ 000000018001de78     libucrt:lcidtoname_downlevel.obj
 0002:00003e88       ??_C@_1M@LKMGMLKO@?$AAe?$AAn?$AA?9?$AAG?$AAB?$AA?$AA@ 000000018001de88     libucrt:lcidtoname_downlevel.obj
 0002:00003e98       ??_C@_1M@PGKJFFGL@?$AAe?$AAs?$AA?9?$AAM?$AAX?$AA?$AA@ 000000018001de98     libucrt:lcidtoname_downlevel.obj
 0002:00003ea8       ??_C@_1M@DNNANBDC@?$AAf?$AAr?$AA?9?$AAB?$AAE?$AA?$AA@ 000000018001dea8     libucrt:lcidtoname_downlevel.obj
 0002:00003eb8       ??_C@_1M@HLGMDFHM@?$AAi?$AAt?$AA?9?$AAC?$AAH?$AA?$AA@ 000000018001deb8     libucrt:lcidtoname_downlevel.obj
 0002:00003ec8       ??_C@_1M@CLLBGJH@?$AAn?$AAl?$AA?9?$AAB?$AAE?$AA?$AA@ 000000018001dec8     libucrt:lcidtoname_downlevel.obj
 0002:00003ed8       ??_C@_1M@BODBOGLF@?$AAn?$AAn?$AA?9?$AAN?$AAO?$AA?$AA@ 000000018001ded8     libucrt:lcidtoname_downlevel.obj
 0002:00003ee8       ??_C@_1M@HFFAHKAD@?$AAp?$AAt?$AA?9?$AAP?$AAT?$AA?$AA@ 000000018001dee8     libucrt:lcidtoname_downlevel.obj
 0002:00003ef8       ??_C@_1BG@LNOAKHIE@?$AAs?$AAr?$AA?9?$AAS?$AAP?$AA?9?$AAL?$AAa?$AAt?$AAn?$AA?$AA@ 000000018001def8     libucrt:lcidtoname_downlevel.obj
 0002:00003f10       ??_C@_1M@HBMHBGAK@?$AAs?$AAv?$AA?9?$AAF?$AAI?$AA?$AA@ 000000018001df10     libucrt:lcidtoname_downlevel.obj
 0002:00003f20       ??_C@_1BG@DGCJGJBE@?$AAa?$AAz?$AA?9?$AAA?$AAZ?$AA?9?$AAC?$AAy?$AAr?$AAl?$AA?$AA@ 000000018001df20     libucrt:lcidtoname_downlevel.obj
 0002:00003f38       ??_C@_1M@KEJDAAHB@?$AAs?$AAe?$AA?9?$AAS?$AAE?$AA?$AA@ 000000018001df38     libucrt:lcidtoname_downlevel.obj
 0002:00003f48       ??_C@_1M@HEIBJJAD@?$AAm?$AAs?$AA?9?$AAB?$AAN?$AA?$AA@ 000000018001df48     libucrt:lcidtoname_downlevel.obj
 0002:00003f58       ??_C@_1BG@PBGJMCEM@?$AAu?$AAz?$AA?9?$AAU?$AAZ?$AA?9?$AAC?$AAy?$AAr?$AAl?$AA?$AA@ 000000018001df58     libucrt:lcidtoname_downlevel.obj
 0002:00003f70       ??_C@_1O@LAOBCMDF@?$AAq?$AAu?$AAz?$AA?9?$AAE?$AAC?$AA?$AA@ 000000018001df70     libucrt:lcidtoname_downlevel.obj
 0002:00003f80       ??_C@_1M@POEEMAIO@?$AAa?$AAr?$AA?9?$AAE?$AAG?$AA?$AA@ 000000018001df80     libucrt:lcidtoname_downlevel.obj
 0002:00003f90       ??_C@_1M@EFAKDEDL@?$AAz?$AAh?$AA?9?$AAH?$AAK?$AA?$AA@ 000000018001df90     libucrt:lcidtoname_downlevel.obj
 0002:00003fa0       ??_C@_1M@HKKIJHGI@?$AAd?$AAe?$AA?9?$AAA?$AAT?$AA?$AA@ 000000018001dfa0     libucrt:lcidtoname_downlevel.obj
 0002:00003fb0       ??_C@_1M@KBFBEHJF@?$AAe?$AAn?$AA?9?$AAA?$AAU?$AA?$AA@ 000000018001dfb0     libucrt:lcidtoname_downlevel.obj
 0002:00003fc0       ??_C@_1M@MNPLFAAH@?$AAe?$AAs?$AA?9?$AAE?$AAS?$AA?$AA@ 000000018001dfc0     libucrt:lcidtoname_downlevel.obj
 0002:00003fd0       ??_C@_1M@HJOOJFMA@?$AAf?$AAr?$AA?9?$AAC?$AAA?$AA?$AA@ 000000018001dfd0     libucrt:lcidtoname_downlevel.obj
 0002:00003fe0       ??_C@_1BG@JPOFPNAB@?$AAs?$AAr?$AA?9?$AAS?$AAP?$AA?9?$AAC?$AAy?$AAr?$AAl?$AA?$AA@ 000000018001dfe0     libucrt:lcidtoname_downlevel.obj
 0002:00003ff8       ??_C@_1M@LNFOCMOB@?$AAs?$AAe?$AA?9?$AAF?$AAI?$AA?$AA@ 000000018001dff8     libucrt:lcidtoname_downlevel.obj
 0002:00004008       ??_C@_1O@MGJBOAMB@?$AAq?$AAu?$AAz?$AA?9?$AAP?$AAE?$AA?$AA@ 000000018001e008     libucrt:lcidtoname_downlevel.obj
 0002:00004018       ??_C@_1M@GJINLBOK@?$AAa?$AAr?$AA?9?$AAL?$AAY?$AA?$AA@ 000000018001e018     libucrt:lcidtoname_downlevel.obj
 0002:00004028       ??_C@_1M@GGMNHJNL@?$AAz?$AAh?$AA?9?$AAS?$AAG?$AA?$AA@ 000000018001e028     libucrt:lcidtoname_downlevel.obj
 0002:00004038       ??_C@_1M@HOIKODND@?$AAd?$AAe?$AA?9?$AAL?$AAU?$AA?$AA@ 000000018001e038     libucrt:lcidtoname_downlevel.obj
 0002:00004048       ??_C@_1M@DDOCCGFG@?$AAe?$AAn?$AA?9?$AAC?$AAA?$AA?$AA@ 000000018001e048     libucrt:lcidtoname_downlevel.obj
 0002:00004058       ??_C@_1M@BNOEMJLF@?$AAe?$AAs?$AA?9?$AAG?$AAT?$AA?$AA@ 000000018001e058     libucrt:lcidtoname_downlevel.obj
 0002:00004068       ??_C@_1M@EOGNKEK@?$AAf?$AAr?$AA?9?$AAC?$AAH?$AA?$AA@ 000000018001e068     libucrt:lcidtoname_downlevel.obj
 0002:00004078       ??_C@_1M@FLIDJFHL@?$AAh?$AAr?$AA?9?$AAB?$AAA?$AA?$AA@ 000000018001e078     libucrt:lcidtoname_downlevel.obj
 0002:00004088       ??_C@_1O@FMCELNAJ@?$AAs?$AAm?$AAj?$AA?9?$AAN?$AAO?$AA?$AA@ 000000018001e088     libucrt:lcidtoname_downlevel.obj
 0002:00004098       ??_C@_1M@JHGLJMGJ@?$AAa?$AAr?$AA?9?$AAD?$AAZ?$AA?$AA@ 000000018001e098     libucrt:lcidtoname_downlevel.obj
 0002:000040a8       ??_C@_1M@JKKFDCNP@?$AAz?$AAh?$AA?9?$AAM?$AAO?$AA?$AA@ 000000018001e0a8     libucrt:lcidtoname_downlevel.obj
 0002:000040b8       ??_C@_1M@GEEFALPE@?$AAd?$AAe?$AA?9?$AAL?$AAI?$AA?$AA@ 000000018001e0b8     libucrt:lcidtoname_downlevel.obj
 0002:000040c8       ??_C@_1M@IGEOFBG@?$AAe?$AAn?$AA?9?$AAN?$AAZ?$AA?$AA@ 000000018001e0c8     libucrt:lcidtoname_downlevel.obj
 0002:000040d8       ??_C@_1M@KDBONEHP@?$AAe?$AAs?$AA?9?$AAC?$AAR?$AA?$AA@ 000000018001e0d8     libucrt:lcidtoname_downlevel.obj
 0002:000040e8       ??_C@_1M@FHMDOHNN@?$AAf?$AAr?$AA?9?$AAL?$AAU?$AA?$AA@ 000000018001e0e8     libucrt:lcidtoname_downlevel.obj
 0002:000040f8       ??_C@_1BG@NFKKMAFG@?$AAb?$AAs?$AA?9?$AAB?$AAA?$AA?9?$AAL?$AAa?$AAt?$AAn?$AA?$AA@ 000000018001e0f8     libucrt:lcidtoname_downlevel.obj
 0002:00004110       ??_C@_1O@IMNBEMCI@?$AAs?$AAm?$AAj?$AA?9?$AAS?$AAE?$AA?$AA@ 000000018001e110     libucrt:lcidtoname_downlevel.obj
 0002:00004120       ??_C@_1M@DHHMBNDP@?$AAa?$AAr?$AA?9?$AAM?$AAA?$AA?$AA@ 000000018001e120     libucrt:lcidtoname_downlevel.obj
 0002:00004130       ??_C@_1M@BNBLJCGH@?$AAe?$AAn?$AA?9?$AAI?$AAE?$AA?$AA@ 000000018001e130     libucrt:lcidtoname_downlevel.obj
 0002:00004140       ??_C@_1M@GEPAFMDL@?$AAe?$AAs?$AA?9?$AAP?$AAA?$AA?$AA@ 000000018001e140     libucrt:lcidtoname_downlevel.obj
 0002:00004150       ??_C@_1M@OJONDMDL@?$AAf?$AAr?$AA?9?$AAM?$AAC?$AA?$AA@ 000000018001e150     libucrt:lcidtoname_downlevel.obj
 0002:00004160       ??_C@_1BG@OBCNFJB@?$AAs?$AAr?$AA?9?$AAB?$AAA?$AA?9?$AAL?$AAa?$AAt?$AAn?$AA?$AA@ 000000018001e160     libucrt:lcidtoname_downlevel.obj
 0002:00004178       ??_C@_1O@KEMEEGPO@?$AAs?$AAm?$AAa?$AA?9?$AAN?$AAO?$AA?$AA@ 000000018001e178     libucrt:lcidtoname_downlevel.obj
 0002:00004188       ??_C@_1M@ELMGFODK@?$AAa?$AAr?$AA?9?$AAT?$AAN?$AA?$AA@ 000000018001e188     libucrt:lcidtoname_downlevel.obj
 0002:00004198       ??_C@_1M@BHDLHFAF@?$AAe?$AAn?$AA?9?$AAZ?$AAA?$AA?$AA@ 000000018001e198     libucrt:lcidtoname_downlevel.obj
 0002:000041a8       ??_C@_1M@BMGIGLIF@?$AAe?$AAs?$AA?9?$AAD?$AAO?$AA?$AA@ 000000018001e1a8     libucrt:lcidtoname_downlevel.obj
 0002:000041b8       ??_C@_1BG@CMBHIPBE@?$AAs?$AAr?$AA?9?$AAB?$AAA?$AA?9?$AAC?$AAy?$AAr?$AAl?$AA?$AA@ 000000018001e1b8     libucrt:lcidtoname_downlevel.obj
 0002:000041d0       ??_C@_1O@HEDBLHNP@?$AAs?$AAm?$AAa?$AA?9?$AAS?$AAE?$AA?$AA@ 000000018001e1d0     libucrt:lcidtoname_downlevel.obj
 0002:000041e0       ??_C@_1M@DAGCADIM@?$AAa?$AAr?$AA?9?$AAO?$AAM?$AA?$AA@ 000000018001e1e0     libucrt:lcidtoname_downlevel.obj
 0002:000041f0       ??_C@_1M@FODLMICG@?$AAe?$AAn?$AA?9?$AAJ?$AAM?$AA?$AA@ 000000018001e1f0     libucrt:lcidtoname_downlevel.obj
 0002:00004200       ??_C@_1M@DNMLCIHB@?$AAe?$AAs?$AA?9?$AAV?$AAE?$AA?$AA@ 000000018001e200     libucrt:lcidtoname_downlevel.obj
 0002:00004210       ??_C@_1O@EOKHMKJK@?$AAs?$AAm?$AAs?$AA?9?$AAF?$AAI?$AA?$AA@ 000000018001e210     libucrt:lcidtoname_downlevel.obj
 0002:00004220       ??_C@_1M@CAFJMKOF@?$AAa?$AAr?$AA?9?$AAY?$AAE?$AA?$AA@ 000000018001e220     libucrt:lcidtoname_downlevel.obj
 0002:00004230       ??_C@_1M@CBFHIJLI@?$AAe?$AAn?$AA?9?$AAC?$AAB?$AA?$AA@ 000000018001e230     libucrt:lcidtoname_downlevel.obj
 0002:00004240       ??_C@_1M@BGNFLDN@?$AAe?$AAs?$AA?9?$AAC?$AAO?$AA?$AA@ 000000018001e240     libucrt:lcidtoname_downlevel.obj
 0002:00004250       ??_C@_1O@JMPHMAMC@?$AAs?$AAm?$AAn?$AA?9?$AAF?$AAI?$AA?$AA@ 000000018001e250     libucrt:lcidtoname_downlevel.obj
 0002:00004260       ??_C@_1M@JLANABKE@?$AAa?$AAr?$AA?9?$AAS?$AAY?$AA?$AA@ 000000018001e260     libucrt:lcidtoname_downlevel.obj
 0002:00004270       ??_C@_1M@HPKGCFGN@?$AAe?$AAn?$AA?9?$AAB?$AAZ?$AA?$AA@ 000000018001e270     libucrt:lcidtoname_downlevel.obj
 0002:00004280       ??_C@_1M@OLJCMLGM@?$AAe?$AAs?$AA?9?$AAP?$AAE?$AA?$AA@ 000000018001e280     libucrt:lcidtoname_downlevel.obj
 0002:00004290       ??_C@_1M@MKKGFKLE@?$AAa?$AAr?$AA?9?$AAJ?$AAO?$AA?$AA@ 000000018001e290     libucrt:lcidtoname_downlevel.obj
 0002:000042a0       ??_C@_1M@EKPGLDNI@?$AAe?$AAn?$AA?9?$AAT?$AAT?$AA?$AA@ 000000018001e2a0     libucrt:lcidtoname_downlevel.obj
 0002:000042b0       ??_C@_1M@OONGHFHE@?$AAe?$AAs?$AA?9?$AAA?$AAR?$AA?$AA@ 000000018001e2b0     libucrt:lcidtoname_downlevel.obj
 0002:000042c0       ??_C@_1M@OOJFGBHE@?$AAa?$AAr?$AA?9?$AAL?$AAB?$AA?$AA@ 000000018001e2c0     libucrt:lcidtoname_downlevel.obj
 0002:000042d0       ??_C@_1M@GCEJHNEG@?$AAe?$AAn?$AA?9?$AAZ?$AAW?$AA?$AA@ 000000018001e2d0     libucrt:lcidtoname_downlevel.obj
 0002:000042e0       ??_C@_1M@JNOCAHJI@?$AAe?$AAs?$AA?9?$AAE?$AAC?$AA?$AA@ 000000018001e2e0     libucrt:lcidtoname_downlevel.obj
 0002:000042f0       ??_C@_1M@JEFHPGGB@?$AAa?$AAr?$AA?9?$AAK?$AAW?$AA?$AA@ 000000018001e2f0     libucrt:lcidtoname_downlevel.obj
 0002:00004300       ??_C@_1M@MLKIBJOJ@?$AAe?$AAn?$AA?9?$AAP?$AAH?$AA?$AA@ 000000018001e300     libucrt:lcidtoname_downlevel.obj
 0002:00004310       ??_C@_1M@BDNIPEND@?$AAe?$AAs?$AA?9?$AAC?$AAL?$AA?$AA@ 000000018001e310     libucrt:lcidtoname_downlevel.obj
 0002:00004320       ??_C@_1M@MPNMEKBD@?$AAa?$AAr?$AA?9?$AAA?$AAE?$AA?$AA@ 000000018001e320     libucrt:lcidtoname_downlevel.obj
 0002:00004330       ??_C@_1M@KBJALCPI@?$AAe?$AAs?$AA?9?$AAU?$AAY?$AA?$AA@ 000000018001e330     libucrt:lcidtoname_downlevel.obj
 0002:00004340       ??_C@_1M@LLCCOAGA@?$AAa?$AAr?$AA?9?$AAB?$AAH?$AA?$AA@ 000000018001e340     libucrt:lcidtoname_downlevel.obj
 0002:00004350       ??_C@_1M@PBFNCDEL@?$AAe?$AAs?$AA?9?$AAP?$AAY?$AA?$AA@ 000000018001e350     libucrt:lcidtoname_downlevel.obj
 0002:00004360       ??_C@_1M@EDGINPNP@?$AAa?$AAr?$AA?9?$AAQ?$AAA?$AA?$AA@ 000000018001e360     libucrt:lcidtoname_downlevel.obj
 0002:00004370       ??_C@_1M@MKDBIIJI@?$AAe?$AAs?$AA?9?$AAB?$AAO?$AA?$AA@ 000000018001e370     libucrt:lcidtoname_downlevel.obj
 0002:00004380       ??_C@_1M@CPKKEBLD@?$AAe?$AAs?$AA?9?$AAS?$AAV?$AA?$AA@ 000000018001e380     libucrt:lcidtoname_downlevel.obj
 0002:00004390       ??_C@_1M@NDBGMMJL@?$AAe?$AAs?$AA?9?$AAH?$AAN?$AA?$AA@ 000000018001e390     libucrt:lcidtoname_downlevel.obj
 0002:000043a0       ??_C@_1M@JIJIBHDP@?$AAe?$AAs?$AA?9?$AAN?$AAI?$AA?$AA@ 000000018001e3a0     libucrt:lcidtoname_downlevel.obj
 0002:000043b0       ??_C@_1M@CGFMKEEK@?$AAe?$AAs?$AA?9?$AAP?$AAR?$AA?$AA@ 000000018001e3b0     libucrt:lcidtoname_downlevel.obj
 0002:000043c0       ??_C@_1O@ICJHKIIK@?$AAz?$AAh?$AA?9?$AAC?$AAH?$AAT?$AA?$AA@ 000000018001e3c0     libucrt:lcidtoname_downlevel.obj
 0002:000043d0       ??_C@_15CLNEJCE@?$AAs?$AAr?$AA?$AA@ 000000018001e3d0     libucrt:lcidtoname_downlevel.obj
 0002:00005220       ??_C@_1M@KAHEKEIG@?$AAa?$AAf?$AA?9?$AAz?$AAa?$AA?$AA@ 000000018001f220     libucrt:lcidtoname_downlevel.obj
 0002:00005230       ??_C@_1M@GIECOABL@?$AAa?$AAr?$AA?9?$AAa?$AAe?$AA?$AA@ 000000018001f230     libucrt:lcidtoname_downlevel.obj
 0002:00005240       ??_C@_1M@BMLMEKGI@?$AAa?$AAr?$AA?9?$AAb?$AAh?$AA?$AA@ 000000018001f240     libucrt:lcidtoname_downlevel.obj
 0002:00005250       ??_C@_1M@DAPFDGGB@?$AAa?$AAr?$AA?9?$AAd?$AAz?$AA?$AA@ 000000018001f250     libucrt:lcidtoname_downlevel.obj
 0002:00005260       ??_C@_1M@FJNKGKIG@?$AAa?$AAr?$AA?9?$AAe?$AAg?$AA?$AA@ 000000018001f260     libucrt:lcidtoname_downlevel.obj
 0002:00005270       ??_C@_1M@FLGKKCLO@?$AAa?$AAr?$AA?9?$AAi?$AAq?$AA?$AA@ 000000018001f270     libucrt:lcidtoname_downlevel.obj
 0002:00005280       ??_C@_1M@GNDIPALM@?$AAa?$AAr?$AA?9?$AAj?$AAo?$AA?$AA@ 000000018001f280     libucrt:lcidtoname_downlevel.obj
 0002:00005290       ??_C@_1M@DDMJFMGJ@?$AAa?$AAr?$AA?9?$AAk?$AAw?$AA?$AA@ 000000018001f290     libucrt:lcidtoname_downlevel.obj
 0002:000052a0       ??_C@_1M@EJALMLHM@?$AAa?$AAr?$AA?9?$AAl?$AAb?$AA?$AA@ 000000018001f2a0     libucrt:lcidtoname_downlevel.obj
 0002:000052b0       ??_C@_1M@MOBDBLOC@?$AAa?$AAr?$AA?9?$AAl?$AAy?$AA?$AA@ 000000018001f2b0     libucrt:lcidtoname_downlevel.obj
 0002:000052c0       ??_C@_1M@JAOCLHDH@?$AAa?$AAr?$AA?9?$AAm?$AAa?$AA?$AA@ 000000018001f2c0     libucrt:lcidtoname_downlevel.obj
 0002:000052d0       ??_C@_1M@JHPMKJIE@?$AAa?$AAr?$AA?9?$AAo?$AAm?$AA?$AA@ 000000018001f2d0     libucrt:lcidtoname_downlevel.obj
 0002:000052e0       ??_C@_1M@OEPGHFNH@?$AAa?$AAr?$AA?9?$AAq?$AAa?$AA?$AA@ 000000018001f2e0     libucrt:lcidtoname_downlevel.obj
 0002:000052f0       ??_C@_1M@KJDONENM@?$AAa?$AAr?$AA?9?$AAs?$AAa?$AA?$AA@ 000000018001f2f0     libucrt:lcidtoname_downlevel.obj
 0002:00005300       ??_C@_1M@DMJDKLKM@?$AAa?$AAr?$AA?9?$AAs?$AAy?$AA?$AA@ 000000018001f300     libucrt:lcidtoname_downlevel.obj
 0002:00005310       ??_C@_1M@OMFIPEDC@?$AAa?$AAr?$AA?9?$AAt?$AAn?$AA?$AA@ 000000018001f310     libucrt:lcidtoname_downlevel.obj
 0002:00005320       ??_C@_1M@IHMHGAON@?$AAa?$AAr?$AA?9?$AAy?$AAe?$AA?$AA@ 000000018001f320     libucrt:lcidtoname_downlevel.obj
 0002:00005330       ??_C@_1BG@KDCPGJGB@?$AAa?$AAz?$AA?9?$AAa?$AAz?$AA?9?$AAc?$AAy?$AAr?$AAl?$AA?$AA@ 000000018001f330     libucrt:lcidtoname_downlevel.obj
 0002:00005348       ??_C@_1BG@IBCKDDOE@?$AAa?$AAz?$AA?9?$AAa?$AAz?$AA?9?$AAl?$AAa?$AAt?$AAn?$AA?$AA@ 000000018001f348     libucrt:lcidtoname_downlevel.obj
 0002:00005360       ??_C@_1M@EGPFDCPD@?$AAb?$AAe?$AA?9?$AAb?$AAy?$AA?$AA@ 000000018001f360     libucrt:lcidtoname_downlevel.obj
 0002:00005370       ??_C@_1M@PCMGMCGC@?$AAb?$AAg?$AA?9?$AAb?$AAg?$AA?$AA@ 000000018001f370     libucrt:lcidtoname_downlevel.obj
 0002:00005380       ??_C@_1M@BJBMFGOB@?$AAb?$AAn?$AA?9?$AAi?$AAn?$AA?$AA@ 000000018001f380     libucrt:lcidtoname_downlevel.obj
 0002:00005390       ??_C@_1BG@EAKMMACD@?$AAb?$AAs?$AA?9?$AAb?$AAa?$AA?9?$AAl?$AAa?$AAt?$AAn?$AA?$AA@ 000000018001f390     libucrt:lcidtoname_downlevel.obj
 0002:000053a8       ??_C@_1M@KGADAODK@?$AAc?$AAa?$AA?9?$AAe?$AAs?$AA?$AA@ 000000018001f3a8     libucrt:lcidtoname_downlevel.obj
 0002:000053b8       ??_C@_1M@COAJPDHI@?$AAc?$AAs?$AA?9?$AAc?$AAz?$AA?$AA@ 000000018001f3b8     libucrt:lcidtoname_downlevel.obj
 0002:000053c8       ??_C@_1M@DHBHFONH@?$AAc?$AAy?$AA?9?$AAg?$AAb?$AA?$AA@ 000000018001f3c8     libucrt:lcidtoname_downlevel.obj
 0002:000053d8       ??_C@_1M@IMGKELGA@?$AAd?$AAa?$AA?9?$AAd?$AAk?$AA?$AA@ 000000018001f3d8     libucrt:lcidtoname_downlevel.obj
 0002:000053e8       ??_C@_1M@NNDGDNGA@?$AAd?$AAe?$AA?9?$AAa?$AAt?$AA?$AA@ 000000018001f3e8     libucrt:lcidtoname_downlevel.obj
 0002:000053f8       ??_C@_1M@IKDBHEEM@?$AAd?$AAe?$AA?9?$AAc?$AAh?$AA?$AA@ 000000018001f3f8     libucrt:lcidtoname_downlevel.obj
 0002:00005408       ??_C@_1M@GFFOJMCJ@?$AAd?$AAe?$AA?9?$AAd?$AAe?$AA?$AA@ 000000018001f408     libucrt:lcidtoname_downlevel.obj
 0002:00005418       ??_C@_1M@MDNLKBPM@?$AAd?$AAe?$AA?9?$AAl?$AAi?$AA?$AA@ 000000018001f418     libucrt:lcidtoname_downlevel.obj
 0002:00005428       ??_C@_1M@NJBEEJNL@?$AAd?$AAe?$AA?9?$AAl?$AAu?$AA?$AA@ 000000018001f428     libucrt:lcidtoname_downlevel.obj
 0002:00005438       ??_C@_1O@GNNELBAP@?$AAd?$AAi?$AAv?$AA?9?$AAm?$AAv?$AA?$AA@ 000000018001f438     libucrt:lcidtoname_downlevel.obj
 0002:00005448       ??_C@_1M@EJLEOGAE@?$AAe?$AAl?$AA?9?$AAg?$AAr?$AA?$AA@ 000000018001f448     libucrt:lcidtoname_downlevel.obj
 0002:00005458       ??_C@_1M@GMPONJN@?$AAe?$AAn?$AA?9?$AAa?$AAu?$AA?$AA@ 000000018001f458     libucrt:lcidtoname_downlevel.obj
 0002:00005468       ??_C@_1M@NIDIIPGF@?$AAe?$AAn?$AA?9?$AAb?$AAz?$AA?$AA@ 000000018001f468     libucrt:lcidtoname_downlevel.obj
 0002:00005478       ??_C@_1M@JEHMIMFO@?$AAe?$AAn?$AA?9?$AAc?$AAa?$AA?$AA@ 000000018001f478     libucrt:lcidtoname_downlevel.obj
 0002:00005488       ??_C@_1M@IGMJCDLA@?$AAe?$AAn?$AA?9?$AAc?$AAb?$AA?$AA@ 000000018001f488     libucrt:lcidtoname_downlevel.obj
 0002:00005498       ??_C@_1M@BNFIGBKG@?$AAe?$AAn?$AA?9?$AAg?$AAb?$AA?$AA@ 000000018001f498     libucrt:lcidtoname_downlevel.obj
 0002:000054a8       ??_C@_1M@LKIFDIGP@?$AAe?$AAn?$AA?9?$AAi?$AAe?$AA?$AA@ 000000018001f4a8     libucrt:lcidtoname_downlevel.obj
 0002:000054b8       ??_C@_1M@PJKFGCCO@?$AAe?$AAn?$AA?9?$AAj?$AAm?$AA?$AA@ 000000018001f4b8     libucrt:lcidtoname_downlevel.obj
 0002:000054c8       ??_C@_1M@KPPKEPBO@?$AAe?$AAn?$AA?9?$AAn?$AAz?$AA?$AA@ 000000018001f4c8     libucrt:lcidtoname_downlevel.obj
 0002:000054d8       ??_C@_1M@GMDGLDOB@?$AAe?$AAn?$AA?9?$AAp?$AAh?$AA?$AA@ 000000018001f4d8     libucrt:lcidtoname_downlevel.obj
 0002:000054e8       ??_C@_1M@ONGIBJNA@?$AAe?$AAn?$AA?9?$AAt?$AAt?$AA?$AA@ 000000018001f4e8     libucrt:lcidtoname_downlevel.obj
 0002:000054f8       ??_C@_1M@LLODPCMM@?$AAe?$AAn?$AA?9?$AAu?$AAs?$AA?$AA@ 000000018001f4f8     libucrt:lcidtoname_downlevel.obj
 0002:00005508       ??_C@_1M@LAKFNPAN@?$AAe?$AAn?$AA?9?$AAz?$AAa?$AA?$AA@ 000000018001f508     libucrt:lcidtoname_downlevel.obj
 0002:00005518       ??_C@_1M@MFNHNHEO@?$AAe?$AAn?$AA?9?$AAz?$AAw?$AA?$AA@ 000000018001f518     libucrt:lcidtoname_downlevel.obj
 0002:00005528       ??_C@_1M@EJEINPHM@?$AAe?$AAs?$AA?9?$AAa?$AAr?$AA?$AA@ 000000018001f528     libucrt:lcidtoname_downlevel.obj
 0002:00005538       ??_C@_1M@GNKPCCJA@?$AAe?$AAs?$AA?9?$AAb?$AAo?$AA?$AA@ 000000018001f538     libucrt:lcidtoname_downlevel.obj
 0002:00005548       ??_C@_1M@LEEGFONL@?$AAe?$AAs?$AA?9?$AAc?$AAl?$AA?$AA@ 000000018001f548     libucrt:lcidtoname_downlevel.obj
 0002:00005558       ??_C@_1M@KGPDPBDF@?$AAe?$AAs?$AA?9?$AAc?$AAo?$AA?$AA@ 000000018001f558     libucrt:lcidtoname_downlevel.obj
 0002:00005568       ??_C@_1M@EIAHOHH@?$AAe?$AAs?$AA?9?$AAc?$AAr?$AA?$AA@ 000000018001f568     libucrt:lcidtoname_downlevel.obj
 0002:00005578       ??_C@_1M@LLPGMBIN@?$AAe?$AAs?$AA?9?$AAd?$AAo?$AA?$AA@ 000000018001f578     libucrt:lcidtoname_downlevel.obj
 0002:00005588       ??_C@_1M@DKHMKNJA@?$AAe?$AAs?$AA?9?$AAe?$AAc?$AA?$AA@ 000000018001f588     libucrt:lcidtoname_downlevel.obj
 0002:00005598       ??_C@_1M@GKGFPKAP@?$AAe?$AAs?$AA?9?$AAe?$AAs?$AA?$AA@ 000000018001f598     libucrt:lcidtoname_downlevel.obj
 0002:000055a8       ??_C@_1M@LKHKGDLN@?$AAe?$AAs?$AA?9?$AAg?$AAt?$AA?$AA@ 000000018001f5a8     libucrt:lcidtoname_downlevel.obj
 0002:000055b8       ??_C@_1M@HEIIGGJD@?$AAe?$AAs?$AA?9?$AAh?$AAn?$AA?$AA@ 000000018001f5b8     libucrt:lcidtoname_downlevel.obj
 0002:000055c8       ??_C@_1M@FBDHPPGD@?$AAe?$AAs?$AA?9?$AAm?$AAx?$AA?$AA@ 000000018001f5c8     libucrt:lcidtoname_downlevel.obj
 0002:000055d8       ??_C@_1M@DPAGLNDH@?$AAe?$AAs?$AA?9?$AAn?$AAi?$AA?$AA@ 000000018001f5d8     libucrt:lcidtoname_downlevel.obj
 0002:000055e8       ??_C@_1M@MDGOPGDD@?$AAe?$AAs?$AA?9?$AAp?$AAa?$AA?$AA@ 000000018001f5e8     libucrt:lcidtoname_downlevel.obj
 0002:000055f8       ??_C@_1M@EMAMGBGE@?$AAe?$AAs?$AA?9?$AAp?$AAe?$AA?$AA@ 000000018001f5f8     libucrt:lcidtoname_downlevel.obj
 0002:00005608       ??_C@_1M@IBMCAOEC@?$AAe?$AAs?$AA?9?$AAp?$AAr?$AA?$AA@ 000000018001f608     libucrt:lcidtoname_downlevel.obj
 0002:00005618       ??_C@_1M@FGMDIJED@?$AAe?$AAs?$AA?9?$AAp?$AAy?$AA?$AA@ 000000018001f618     libucrt:lcidtoname_downlevel.obj
 0002:00005628       ??_C@_1M@IIDEOLLL@?$AAe?$AAs?$AA?9?$AAs?$AAv?$AA?$AA@ 000000018001f628     libucrt:lcidtoname_downlevel.obj
 0002:00005638       ??_C@_1M@GAOBIPA@?$AAe?$AAs?$AA?9?$AAu?$AAy?$AA?$AA@ 000000018001f638     libucrt:lcidtoname_downlevel.obj
 0002:00005648       ??_C@_1M@JKFFICHJ@?$AAe?$AAs?$AA?9?$AAv?$AAe?$AA?$AA@ 000000018001f648     libucrt:lcidtoname_downlevel.obj
 0002:00005658       ??_C@_1M@PNMLOJDF@?$AAe?$AAt?$AA?9?$AAe?$AAe?$AA?$AA@ 000000018001f658     libucrt:lcidtoname_downlevel.obj
 0002:00005668       ??_C@_1M@GHHLIKEI@?$AAe?$AAu?$AA?9?$AAe?$AAs?$AA?$AA@ 000000018001f668     libucrt:lcidtoname_downlevel.obj
 0002:00005678       ??_C@_1M@PBNONODE@?$AAf?$AAa?$AA?9?$AAi?$AAr?$AA?$AA@ 000000018001f678     libucrt:lcidtoname_downlevel.obj
 0002:00005688       ??_C@_1M@JEEHPMIL@?$AAf?$AAi?$AA?9?$AAf?$AAi?$AA?$AA@ 000000018001f688     libucrt:lcidtoname_downlevel.obj
 0002:00005698       ??_C@_1M@LMDCNDBA@?$AAf?$AAo?$AA?9?$AAf?$AAo?$AA?$AA@ 000000018001f698     libucrt:lcidtoname_downlevel.obj
 0002:000056a8       ??_C@_1M@JKEOHLDK@?$AAf?$AAr?$AA?9?$AAb?$AAe?$AA?$AA@ 000000018001f6a8     libucrt:lcidtoname_downlevel.obj
 0002:000056b8       ??_C@_1M@NOHADPMI@?$AAf?$AAr?$AA?9?$AAc?$AAa?$AA?$AA@ 000000018001f6b8     libucrt:lcidtoname_downlevel.obj
 0002:000056c8       ??_C@_1M@KDHIHAEC@?$AAf?$AAr?$AA?9?$AAc?$AAh?$AA?$AA@ 000000018001f6c8     libucrt:lcidtoname_downlevel.obj
 0002:000056d8       ??_C@_1M@MMBBFGAK@?$AAf?$AAr?$AA?9?$AAf?$AAr?$AA?$AA@ 000000018001f6d8     libucrt:lcidtoname_downlevel.obj
 0002:000056e8       ??_C@_1M@PAFNENNF@?$AAf?$AAr?$AA?9?$AAl?$AAu?$AA?$AA@ 000000018001f6e8     libucrt:lcidtoname_downlevel.obj
 0002:000056f8       ??_C@_1M@EOHDJGDD@?$AAf?$AAr?$AA?9?$AAm?$AAc?$AA?$AA@ 000000018001f6f8     libucrt:lcidtoname_downlevel.obj
 0002:00005708       ??_C@_1M@FAPLLOPF@?$AAg?$AAl?$AA?9?$AAe?$AAs?$AA?$AA@ 000000018001f708     libucrt:lcidtoname_downlevel.obj
 0002:00005718       ??_C@_1M@FOPBFLOO@?$AAg?$AAu?$AA?9?$AAi?$AAn?$AA?$AA@ 000000018001f718     libucrt:lcidtoname_downlevel.obj
 0002:00005728       ??_C@_1M@KBMCINPM@?$AAh?$AAe?$AA?9?$AAi?$AAl?$AA?$AA@ 000000018001f728     libucrt:lcidtoname_downlevel.obj
 0002:00005738       ??_C@_1M@BBPHKFPJ@?$AAh?$AAi?$AA?9?$AAi?$AAn?$AA?$AA@ 000000018001f738     libucrt:lcidtoname_downlevel.obj
 0002:00005748       ??_C@_1M@PMBNDPHD@?$AAh?$AAr?$AA?9?$AAb?$AAa?$AA?$AA@ 000000018001f748     libucrt:lcidtoname_downlevel.obj
 0002:00005758       ??_C@_1M@BPCKOEGE@?$AAh?$AAr?$AA?9?$AAh?$AAr?$AA?$AA@ 000000018001f758     libucrt:lcidtoname_downlevel.obj
 0002:00005768       ??_C@_1M@GACBMHKE@?$AAh?$AAu?$AA?9?$AAh?$AAu?$AA?$AA@ 000000018001f768     libucrt:lcidtoname_downlevel.obj
 0002:00005778       ??_C@_1M@MILPAJJC@?$AAh?$AAy?$AA?9?$AAa?$AAm?$AA?$AA@ 000000018001f778     libucrt:lcidtoname_downlevel.obj
 0002:00005788       ??_C@_1M@BABBICEC@?$AAi?$AAd?$AA?9?$AAi?$AAd?$AA?$AA@ 000000018001f788     libucrt:lcidtoname_downlevel.obj
 0002:00005798       ??_C@_1M@BIKNHHPF@?$AAi?$AAs?$AA?9?$AAi?$AAs?$AA?$AA@ 000000018001f798     libucrt:lcidtoname_downlevel.obj
 0002:000057a8       ??_C@_1M@NMPCJPHE@?$AAi?$AAt?$AA?9?$AAc?$AAh?$AA?$AA@ 000000018001f7a8     libucrt:lcidtoname_downlevel.obj
 0002:000057b8       ??_C@_1M@GHKGFEDF@?$AAi?$AAt?$AA?9?$AAi?$AAt?$AA?$AA@ 000000018001f7b8     libucrt:lcidtoname_downlevel.obj
 0002:000057c8       ??_C@_1M@NIEJCJJA@?$AAj?$AAa?$AA?9?$AAj?$AAp?$AA?$AA@ 000000018001f7c8     libucrt:lcidtoname_downlevel.obj
 0002:000057d8       ??_C@_1M@JILFNBIM@?$AAk?$AAa?$AA?9?$AAg?$AAe?$AA?$AA@ 000000018001f7d8     libucrt:lcidtoname_downlevel.obj
 0002:000057e8       ??_C@_1M@PACPMGPH@?$AAk?$AAk?$AA?9?$AAk?$AAz?$AA?$AA@ 000000018001f7e8     libucrt:lcidtoname_downlevel.obj
 0002:000057f8       ??_C@_1M@IELFGMHA@?$AAk?$AAn?$AA?9?$AAi?$AAn?$AA?$AA@ 000000018001f7f8     libucrt:lcidtoname_downlevel.obj
 0002:00005808       ??_C@_1O@IBBJHCH@?$AAk?$AAo?$AAk?$AA?9?$AAi?$AAn?$AA?$AA@ 000000018001f808     libucrt:lcidtoname_downlevel.obj
 0002:00005818       ??_C@_1M@DMHAEOGC@?$AAk?$AAo?$AA?9?$AAk?$AAr?$AA?$AA@ 000000018001f818     libucrt:lcidtoname_downlevel.obj
 0002:00005828       ??_C@_1M@HBAHBIGA@?$AAk?$AAy?$AA?9?$AAk?$AAg?$AA?$AA@ 000000018001f828     libucrt:lcidtoname_downlevel.obj
 0002:00005838       ??_C@_1M@KPMILCJG@?$AAl?$AAt?$AA?9?$AAl?$AAt?$AA?$AA@ 000000018001f838     libucrt:lcidtoname_downlevel.obj
 0002:00005848       ??_C@_1M@BDEKKCA@?$AAl?$AAv?$AA?9?$AAl?$AAv?$AA?$AA@ 000000018001f848     libucrt:lcidtoname_downlevel.obj
 0002:00005858       ??_C@_1M@ELCKCCJJ@?$AAm?$AAi?$AA?9?$AAn?$AAz?$AA?$AA@ 000000018001f858     libucrt:lcidtoname_downlevel.obj
 0002:00005868       ??_C@_1M@CBOOLAPA@?$AAm?$AAk?$AA?9?$AAm?$AAk?$AA?$AA@ 000000018001f868     libucrt:lcidtoname_downlevel.obj
 0002:00005878       ??_C@_1M@GPHNBJKN@?$AAm?$AAl?$AA?9?$AAi?$AAn?$AA?$AA@ 000000018001f878     libucrt:lcidtoname_downlevel.obj
 0002:00005888       ??_C@_1M@PABJILIG@?$AAm?$AAn?$AA?9?$AAm?$AAn?$AA?$AA@ 000000018001f888     libucrt:lcidtoname_downlevel.obj
 0002:00005898       ??_C@_1M@FGBKKIPG@?$AAm?$AAr?$AA?9?$AAi?$AAn?$AA?$AA@ 000000018001f898     libucrt:lcidtoname_downlevel.obj
 0002:000058a8       ??_C@_1M@NDBPDDAL@?$AAm?$AAs?$AA?9?$AAb?$AAn?$AA?$AA@ 000000018001f8a8     libucrt:lcidtoname_downlevel.obj
 0002:000058b8       ??_C@_1M@OPIHOOPI@?$AAm?$AAs?$AA?9?$AAm?$AAy?$AA?$AA@ 000000018001f8b8     libucrt:lcidtoname_downlevel.obj
 0002:000058c8       ??_C@_1M@PPDBCNFM@?$AAm?$AAt?$AA?9?$AAm?$AAt?$AA?$AA@ 000000018001f8c8     libucrt:lcidtoname_downlevel.obj
 0002:000058d8       ??_C@_1M@KDJDKMDD@?$AAn?$AAb?$AA?9?$AAn?$AAo?$AA?$AA@ 000000018001f8d8     libucrt:lcidtoname_downlevel.obj
 0002:000058e8       ??_C@_1M@KFCFLMJP@?$AAn?$AAl?$AA?9?$AAb?$AAe?$AA?$AA@ 000000018001f8e8     libucrt:lcidtoname_downlevel.obj
 0002:000058f8       ??_C@_1M@KPOPDDGO@?$AAn?$AAl?$AA?9?$AAn?$AAl?$AA?$AA@ 000000018001f8f8     libucrt:lcidtoname_downlevel.obj
 0002:00005908       ??_C@_1M@LJKPEMLN@?$AAn?$AAn?$AA?9?$AAn?$AAo?$AA?$AA@ 000000018001f908     libucrt:lcidtoname_downlevel.obj
 0002:00005918       ??_C@_1M@BDGHHBFL@?$AAn?$AAs?$AA?9?$AAz?$AAa?$AA?$AA@ 000000018001f918     libucrt:lcidtoname_downlevel.obj
 0002:00005928       ??_C@_1M@IDEHOAP@?$AAp?$AAa?$AA?9?$AAi?$AAn?$AA?$AA@ 000000018001f928     libucrt:lcidtoname_downlevel.obj
 0002:00005938       ??_C@_1M@HDBKGOGH@?$AAp?$AAl?$AA?9?$AAp?$AAl?$AA?$AA@ 000000018001f938     libucrt:lcidtoname_downlevel.obj
 0002:00005948       ??_C@_1M@LJLLCMEH@?$AAp?$AAt?$AA?9?$AAb?$AAr?$AA?$AA@ 000000018001f948     libucrt:lcidtoname_downlevel.obj
 0002:00005958       ??_C@_1M@NCMONAAL@?$AAp?$AAt?$AA?9?$AAp?$AAt?$AA?$AA@ 000000018001f958     libucrt:lcidtoname_downlevel.obj
 0002:00005968       ??_C@_1O@EAKMAJDN@?$AAq?$AAu?$AAz?$AA?9?$AAb?$AAo?$AA?$AA@ 000000018001f968     libucrt:lcidtoname_downlevel.obj
 0002:00005978       ??_C@_1O@BHHPIGDN@?$AAq?$AAu?$AAz?$AA?9?$AAe?$AAc?$AA?$AA@ 000000018001f978     libucrt:lcidtoname_downlevel.obj
 0002:00005988       ??_C@_1O@GBAPEKMJ@?$AAq?$AAu?$AAz?$AA?9?$AAp?$AAe?$AA?$AA@ 000000018001f988     libucrt:lcidtoname_downlevel.obj
 0002:00005998       ??_C@_1M@CLGLEFBO@?$AAr?$AAo?$AA?9?$AAr?$AAo?$AA?$AA@ 000000018001f998     libucrt:lcidtoname_downlevel.obj
 0002:000059a8       ??_C@_1M@CEEDODME@?$AAr?$AAu?$AA?9?$AAr?$AAu?$AA?$AA@ 000000018001f9a8     libucrt:lcidtoname_downlevel.obj
 0002:000059b8       ??_C@_1M@HPKKKMPP@?$AAs?$AAa?$AA?9?$AAi?$AAn?$AA?$AA@ 000000018001f9b8     libucrt:lcidtoname_downlevel.obj
 0002:000059c8       ??_C@_1M@BKMAIGOJ@?$AAs?$AAe?$AA?9?$AAf?$AAi?$AA?$AA@ 000000018001f9c8     libucrt:lcidtoname_downlevel.obj
 0002:000059d8       ??_C@_1M@NDPIFLFI@?$AAs?$AAe?$AA?9?$AAn?$AAo?$AA?$AA@ 000000018001f9d8     libucrt:lcidtoname_downlevel.obj
 0002:000059e8       ??_C@_1M@DANKKHJ@?$AAs?$AAe?$AA?9?$AAs?$AAe?$AA?$AA@ 000000018001f9e8     libucrt:lcidtoname_downlevel.obj
 0002:000059f8       ??_C@_1M@PNBLONPJ@?$AAs?$AAk?$AA?9?$AAs?$AAk?$AA?$AA@ 000000018001f9f8     libucrt:lcidtoname_downlevel.obj
 0002:00005a08       ??_C@_1M@LFMODOAL@?$AAs?$AAl?$AA?9?$AAs?$AAi?$AA?$AA@ 000000018001fa08     libucrt:lcidtoname_downlevel.obj
 0002:00005a18       ??_C@_1O@DFKOMPG@?$AAs?$AAm?$AAa?$AA?9?$AAn?$AAo?$AA?$AA@ 000000018001fa18     libucrt:lcidtoname_downlevel.obj
 0002:00005a28       ??_C@_1O@NDKPBNNH@?$AAs?$AAm?$AAa?$AA?9?$AAs?$AAe?$AA?$AA@ 000000018001fa28     libucrt:lcidtoname_downlevel.obj
 0002:00005a38       ??_C@_1O@PLLKBHAB@?$AAs?$AAm?$AAj?$AA?9?$AAn?$AAo?$AA?$AA@ 000000018001fa38     libucrt:lcidtoname_downlevel.obj
 0002:00005a48       ??_C@_1O@CLEPOGCA@?$AAs?$AAm?$AAj?$AA?9?$AAs?$AAe?$AA?$AA@ 000000018001fa48     libucrt:lcidtoname_downlevel.obj
 0002:00005a58       ??_C@_1O@DLGJGKMK@?$AAs?$AAm?$AAn?$AA?9?$AAf?$AAi?$AA?$AA@ 000000018001fa58     libucrt:lcidtoname_downlevel.obj
 0002:00005a68       ??_C@_1O@OJDJGAJC@?$AAs?$AAm?$AAs?$AA?9?$AAf?$AAi?$AA?$AA@ 000000018001fa68     libucrt:lcidtoname_downlevel.obj
 0002:00005a78       ??_C@_1M@BOFOGHPB@?$AAs?$AAq?$AA?9?$AAa?$AAl?$AA?$AA@ 000000018001fa78     libucrt:lcidtoname_downlevel.obj
 0002:00005a88       ??_C@_1BG@LJBBIPGB@?$AAs?$AAr?$AA?9?$AAb?$AAa?$AA?9?$AAc?$AAy?$AAr?$AAl?$AA?$AA@ 000000018001fa88     libucrt:lcidtoname_downlevel.obj
 0002:00005aa0       ??_C@_1BG@JLBENFOE@?$AAs?$AAr?$AA?9?$AAb?$AAa?$AA?9?$AAl?$AAa?$AAt?$AAn?$AA?$AA@ 000000018001faa0     libucrt:lcidtoname_downlevel.obj
 0002:00005ab8       ??_C@_1BG@KODPNHE@?$AAs?$AAr?$AA?9?$AAs?$AAp?$AA?9?$AAc?$AAy?$AAr?$AAl?$AA?$AA@ 000000018001fab8     libucrt:lcidtoname_downlevel.obj
 0002:00005ad0       ??_C@_1BG@CIOGKHPB@?$AAs?$AAr?$AA?9?$AAs?$AAp?$AA?9?$AAl?$AAa?$AAt?$AAn?$AA?$AA@ 000000018001fad0     libucrt:lcidtoname_downlevel.obj
 0002:00005ae8       ??_C@_1M@NGFJLMAC@?$AAs?$AAv?$AA?9?$AAf?$AAi?$AA?$AA@ 000000018001fae8     libucrt:lcidtoname_downlevel.obj
 0002:00005af8       ??_C@_1M@MPJEJAJC@?$AAs?$AAv?$AA?9?$AAs?$AAe?$AA?$AA@ 000000018001faf8     libucrt:lcidtoname_downlevel.obj
 0002:00005b08       ??_C@_1M@MPNDHLFK@?$AAs?$AAw?$AA?9?$AAk?$AAe?$AA?$AA@ 000000018001fb08     libucrt:lcidtoname_downlevel.obj
 0002:00005b18       ??_C@_1O@KOHBJJI@?$AAs?$AAy?$AAr?$AA?9?$AAs?$AAy?$AA?$AA@ 000000018001fb18     libucrt:lcidtoname_downlevel.obj
 0002:00005b28       ??_C@_1M@LDCEFHA@?$AAt?$AAa?$AA?9?$AAi?$AAn?$AA?$AA@ 000000018001fb28     libucrt:lcidtoname_downlevel.obj
 0002:00005b38       ??_C@_1M@CNJOFAK@?$AAt?$AAe?$AA?9?$AAi?$AAn?$AA?$AA@ 000000018001fb38     libucrt:lcidtoname_downlevel.obj
 0002:00005b48       ??_C@_1M@GNAECACD@?$AAt?$AAh?$AA?9?$AAt?$AAh?$AA?$AA@ 000000018001fb48     libucrt:lcidtoname_downlevel.obj
 0002:00005b58       ??_C@_1M@CHBIHOJO@?$AAt?$AAn?$AA?9?$AAz?$AAa?$AA?$AA@ 000000018001fb58     libucrt:lcidtoname_downlevel.obj
 0002:00005b68       ??_C@_1M@GCCMIGPJ@?$AAt?$AAr?$AA?9?$AAt?$AAr?$AA?$AA@ 000000018001fb68     libucrt:lcidtoname_downlevel.obj
 0002:00005b78       ??_C@_1M@CELMCNBK@?$AAt?$AAt?$AA?9?$AAr?$AAu?$AA?$AA@ 000000018001fb78     libucrt:lcidtoname_downlevel.obj
 0002:00005b88       ??_C@_1M@KLMCELGA@?$AAu?$AAk?$AA?9?$AAu?$AAa?$AA?$AA@ 000000018001fb88     libucrt:lcidtoname_downlevel.obj
 0002:00005b98       ??_C@_1M@EPAJJAJF@?$AAu?$AAr?$AA?9?$AAp?$AAk?$AA?$AA@ 000000018001fb98     libucrt:lcidtoname_downlevel.obj
 0002:00005ba8       ??_C@_1BG@GEGPMCDJ@?$AAu?$AAz?$AA?9?$AAu?$AAz?$AA?9?$AAc?$AAy?$AAr?$AAl?$AA?$AA@ 000000018001fba8     libucrt:lcidtoname_downlevel.obj
 0002:00005bc0       ??_C@_1BG@EGGKJILM@?$AAu?$AAz?$AA?9?$AAu?$AAz?$AA?9?$AAl?$AAa?$AAt?$AAn?$AA?$AA@ 000000018001fbc0     libucrt:lcidtoname_downlevel.obj
 0002:00005bd8       ??_C@_1M@GFOCLFF@?$AAv?$AAi?$AA?9?$AAv?$AAn?$AA?$AA@ 000000018001fbd8     libucrt:lcidtoname_downlevel.obj
 0002:00005be8       ??_C@_1M@CPAMEDFI@?$AAx?$AAh?$AA?9?$AAz?$AAa?$AA?$AA@ 000000018001fbe8     libucrt:lcidtoname_downlevel.obj
 0002:00005bf8       ??_C@_1O@EBKIFIGN@?$AAz?$AAh?$AA?9?$AAc?$AAh?$AAs?$AA?$AA@ 000000018001fbf8     libucrt:lcidtoname_downlevel.obj
 0002:00005c08       ??_C@_1O@NMHPGANE@?$AAz?$AAh?$AA?9?$AAc?$AAh?$AAt?$AA?$AA@ 000000018001fc08     libucrt:lcidtoname_downlevel.obj
 0002:00005c18       ??_C@_1M@LPINJOMC@?$AAz?$AAh?$AA?9?$AAc?$AAn?$AA?$AA@ 000000018001fc18     libucrt:lcidtoname_downlevel.obj
 0002:00005c28       ??_C@_1M@OCJEJODD@?$AAz?$AAh?$AA?9?$AAh?$AAk?$AA?$AA@ 000000018001fc28     libucrt:lcidtoname_downlevel.obj
 0002:00005c38       ??_C@_1M@DNDLJINH@?$AAz?$AAh?$AA?9?$AAm?$AAo?$AA?$AA@ 000000018001fc38     libucrt:lcidtoname_downlevel.obj
 0002:00005c48       ??_C@_1M@MBFDNDND@?$AAz?$AAh?$AA?9?$AAs?$AAg?$AA?$AA@ 000000018001fc48     libucrt:lcidtoname_downlevel.obj
 0002:00005c58       ??_C@_1M@IMEPLEPE@?$AAz?$AAh?$AA?9?$AAt?$AAw?$AA?$AA@ 000000018001fc58     libucrt:lcidtoname_downlevel.obj
 0002:00005c68       ??_C@_1M@BBGHNHJP@?$AAz?$AAu?$AA?9?$AAz?$AAa?$AA?$AA@ 000000018001fc68     libucrt:lcidtoname_downlevel.obj
 0002:00005c80       ?large_power_data@?1??multiply_by_power_of_ten@__crt_strtox@@YA_NAEAUbig_integer@2@I@Z@4QBIB 000000018001fc80     libucrt:cfout.obj
 0002:00006590       ?large_power_indices@?1??multiply_by_power_of_ten@__crt_strtox@@YA_NAEAUbig_integer@2@I@Z@4QBUunpack_index@?1??12@YA_N0I@Z@B 0000000180020590     libucrt:cfout.obj
 0002:00006628       ?small_powers_of_ten@?1??multiply_by_power_of_ten@__crt_strtox@@YA_NAEAUbig_integer@2@I@Z@4QBIB 0000000180020628     libucrt:cfout.obj
 0002:0000664c       ??_C@_01GBGANLPD@0?$AA@    000000018002064c     libucrt:cfout.obj
 0002:00006650       ??_C@_05DNEBIAHO@1?$CDINF?$AA@ 0000000180020650     libucrt:cfout.obj
 0002:00006658       ??_C@_06IMKFLFPG@1?$CDQNAN?$AA@ 0000000180020658     libucrt:cfout.obj
 0002:00006660       ??_C@_06PGGFOGJG@1?$CDSNAN?$AA@ 0000000180020660     libucrt:cfout.obj
 0002:00006668       ??_C@_05PHHOCPM@1?$CDIND?$AA@ 0000000180020668     libucrt:cfout.obj
 0002:00006670       __real@3ff0000000000000    0000000180020670     libucrt:ceil.obj
 0002:000068f8       ??_C@_1BA@BALFACEM@?$AAC?$AAO?$AAN?$AAO?$AAU?$AAT?$AA$?$AA?$AA@ 00000001800208f8     libucrt:initcon.obj
 0002:00006910       __log10_256_lead           0000000180020910     libucrt:log10_256_lead_tail_table.obj
 0002:00007120       __log10_256_tail           0000000180021120     libucrt:log10_256_lead_tail_table.obj
 0002:00007930       __log_F_inv_qword          0000000180021930     libucrt:log_f_inv_qword_table.obj
 0002:00008140       ??_C@_05HGHHAHAP@log10?$AA@ 0000000180022140     libucrt:log_special.obj
 0002:00008160       ??_C@_00CNPNBAHC@?$AA@     0000000180022160     detection.obj
 0002:00008168       ??_C@_0BC@EBHDFLHM@nan?3Callback?3Call?$AA@ 0000000180022168     detection.obj
 0002:00008180       ??_C@_0CC@LODBDECI@First?5argument?5must?5be?5a?5functio@ 0000000180022180     detection.obj
 0002:000081a8       ??_C@_0L@BOGINKLP@locationId?$AA@ 00000001800221a8     detection.obj
 0002:000081b8       ??_C@_08OOCGBFEC@vendorId?$AA@ 00000001800221b8     detection.obj
 0002:000081c8       ??_C@_09FNKBJNGL@productId?$AA@ 00000001800221c8     detection.obj
 0002:000081d8       ??_C@_0L@NBBNBMBM@deviceName?$AA@ 00000001800221d8     detection.obj
 0002:000081e8       ??_C@_0N@KCKFIEGL@manufacturer?$AA@ 00000001800221e8     detection.obj
 0002:000081f8       ??_C@_0N@OMOHFKCJ@serialNumber?$AA@ 00000001800221f8     detection.obj
 0002:00008208       ??_C@_0O@LAMHLHBN@deviceAddress?$AA@ 0000000180022208     detection.obj
 0002:00008218       ??_C@_0CC@KNCIJJMF@Third?5argument?5must?5be?5a?5functio@ 0000000180022218     detection.obj
 0002:00008240       ??_C@_0CD@FDCLPLBL@Second?5argument?5must?5be?5a?5functi@ 0000000180022240     detection.obj
 0002:00008264       ??_C@_04CKFJHKAP@find?$AA@ 0000000180022264     detection.obj
 0002:00008270       ??_C@_0O@EBHILJEA@registerAdded?$AA@ 0000000180022270     detection.obj
 0002:00008280       ??_C@_0BA@MOKFEJDM@registerRemoved?$AA@ 0000000180022280     detection.obj
 0002:00008290       ??_C@_0BA@KPIFKCPN@startMonitoring?$AA@ 0000000180022290     detection.obj
 0002:000082a0       ??_C@_0P@OLHOENGE@stopMonitoring?$AA@ 00000001800222a0     detection.obj
 0002:000082b0       ??_C@_0DJ@MCPIDBFK@c?3?2users?2tulga?2bebo?2node?9usb?9det@ 00000001800222b0     detection.obj
 0002:000082f0       ??_C@_09FPPAECAG@detection?$AA@ 00000001800222f0     detection.obj
 0002:00008300       ??_C@_0BB@MOGOBHAF@list?$DMT?$DO?5too?5long?$AA@ 0000000180022300     deviceList.obj
 0002:00008318       ??_C@_0BA@JFNIOLAK@string?5too?5long?$AA@ 0000000180022318     deviceList.obj
 0002:00008328       ??_C@_0BE@JONHPENG@map?1set?$DMT?$DO?5too?5long?$AA@ 0000000180022328     deviceList.obj
 0002:00008340       ??_C@_0N@HEJONHBF@setupapi?4dll?$AA@ 0000000180022340     detection_win.obj
 0002:00008350       ??_C@_0BG@FHHGAHMJ@SetupDiEnumDeviceInfo?$AA@ 0000000180022350     detection_win.obj
 0002:00008368       ??_C@_0BF@HMKFIDPO@SetupDiGetClassDevsA?$AA@ 0000000180022368     detection_win.obj
 0002:00008380       ??_C@_0BN@PLKAPGAL@SetupDiDestroyDeviceInfoList?$AA@ 0000000180022380     detection_win.obj
 0002:000083a0       ??_C@_0BM@LAEIACBG@SetupDiGetDeviceInstanceIdA?$AA@ 00000001800223a0     detection_win.obj
 0002:000083c0       ??_C@_0CC@GLCBFBDA@SetupDiGetDeviceRegistryProperty@ 00000001800223c0     detection_win.obj
 0002:000083f0       ??_C@_0FA@FNCMDLDM@Could?5not?5load?5library?5functions@ 00000001800223f0     detection_win.obj
 0002:00008440       ??_C@_04CCCCEBLJ@VID_?$AA@ 0000000180022440     detection_win.obj
 0002:00008448       ??_C@_04KNGCLEBJ@PID_?$AA@ 0000000180022448     detection_win.obj
 0002:00008450       ??_C@_0BN@POPMIDOB@ListnerThreadUsbDetection_?$CFd?$AA@ 0000000180022450     detection_win.obj
 0002:00008470       ??_C@_0CG@PLBBBJOH@RegisterClassA?$CI?$CJ?5failed?5?$FLError?3?5@ 0000000180022470     detection_win.obj
 0002:00008498       ??_C@_0CH@KOJEGMKD@CreateWindowExA?$CI?$CJ?5failed?5?$FLError?3@ 0000000180022498     detection_win.obj
 0002:000084c0       ??_C@_0DD@PPJJAJKN@RegisterDeviceNotificationA?$CI?$CJ?5fa@ 00000001800224c0     detection_win.obj
 0002:000084f4       ??_C@_03IONNGCBN@USB?$AA@  00000001800224f4     detection_win.obj
 0002:000084f8       ??_C@_0BI@CFPLBAOH@invalid?5string?5position?$AA@ 00000001800224f8     detection_win.obj
 0002:00008510       ??_7CWin32Heap@ATL@@6B@    0000000180022510     detection_win.obj
 0002:00008538       ??_7CAtlStringMgr@ATL@@6B@ 0000000180022538     detection_win.obj
 0002:00008568       ?GUID_DEVINTERFACE_USB_DEVICE@@3U_GUID@@A 0000000180022568     detection_win.obj
 0002:00008578       __real@bff0000000000000    0000000180022578     detection.obj
 0002:00008580       __xmm@000000000000000f0000000000000000 0000000180022580     detection_win.obj
 0002:00008600       _load_config_used          0000000180022600     LIBCMT:loadcfg.obj
 0002:00008700       ??_R4exception@std@@6B@    0000000180022700     libcpmt:xthrow.obj
 0002:00008728       ??_R3exception@std@@8      0000000180022728     libcpmt:xthrow.obj
 0002:00008740       ??_R2exception@std@@8      0000000180022740     libcpmt:xthrow.obj
 0002:00008750       ??_R1A@?0A@EA@exception@std@@8 0000000180022750     libcpmt:xthrow.obj
 0002:00008778       ??_R4bad_alloc@std@@6B@    0000000180022778     libcpmt:xthrow.obj
 0002:000087a0       ??_R3bad_alloc@std@@8      00000001800227a0     libcpmt:xthrow.obj
 0002:000087b8       ??_R2bad_alloc@std@@8      00000001800227b8     libcpmt:xthrow.obj
 0002:000087d0       ??_R1A@?0A@EA@bad_alloc@std@@8 00000001800227d0     libcpmt:xthrow.obj
 0002:000087f8       ??_R4logic_error@std@@6B@  00000001800227f8     libcpmt:xthrow.obj
 0002:00008820       ??_R3logic_error@std@@8    0000000180022820     libcpmt:xthrow.obj
 0002:00008838       ??_R2logic_error@std@@8    0000000180022838     libcpmt:xthrow.obj
 0002:00008850       ??_R1A@?0A@EA@logic_error@std@@8 0000000180022850     libcpmt:xthrow.obj
 0002:00008878       ??_R4length_error@std@@6B@ 0000000180022878     libcpmt:xthrow.obj
 0002:000088a0       ??_R3length_error@std@@8   00000001800228a0     libcpmt:xthrow.obj
 0002:000088b8       ??_R2length_error@std@@8   00000001800228b8     libcpmt:xthrow.obj
 0002:000088d8       ??_R1A@?0A@EA@length_error@std@@8 00000001800228d8     libcpmt:xthrow.obj
 0002:00008900       ??_R4out_of_range@std@@6B@ 0000000180022900     libcpmt:xthrow.obj
 0002:00008928       ??_R3out_of_range@std@@8   0000000180022928     libcpmt:xthrow.obj
 0002:00008940       ??_R2out_of_range@std@@8   0000000180022940     libcpmt:xthrow.obj
 0002:00008960       ??_R1A@?0A@EA@out_of_range@std@@8 0000000180022960     libcpmt:xthrow.obj
 0002:00008988       ??_R4type_info@@6B@        0000000180022988     LIBCMT:std_type_info_static.obj
 0002:000089b0       ??_R3type_info@@8          00000001800229b0     LIBCMT:std_type_info_static.obj
 0002:000089c8       ??_R2type_info@@8          00000001800229c8     LIBCMT:std_type_info_static.obj
 0002:000089d8       ??_R1A@?0A@EA@type_info@@8 00000001800229d8     LIBCMT:std_type_info_static.obj
 0002:00008a00       ??_R4bad_array_new_length@std@@6B@ 0000000180022a00     LIBCMT:throw_bad_alloc.obj
 0002:00008a28       ??_R3bad_array_new_length@std@@8 0000000180022a28     LIBCMT:throw_bad_alloc.obj
 0002:00008a40       ??_R2bad_array_new_length@std@@8 0000000180022a40     LIBCMT:throw_bad_alloc.obj
 0002:00008a60       ??_R1A@?0A@EA@bad_array_new_length@std@@8 0000000180022a60     LIBCMT:throw_bad_alloc.obj
 0002:00008a88       ??_R4bad_exception@std@@6B@ 0000000180022a88     libvcruntime:frame.obj
 0002:00008ab0       ??_R3bad_exception@std@@8  0000000180022ab0     libvcruntime:frame.obj
 0002:00008ac8       ??_R2bad_exception@std@@8  0000000180022ac8     libvcruntime:frame.obj
 0002:00008ae0       ??_R1A@?0A@EA@bad_exception@std@@8 0000000180022ae0     libvcruntime:frame.obj
 0002:00008e78       __rtc_iaa                  0000000180022e78     LIBCMT:_initsect_.obj
 0002:00008e80       __rtc_izz                  0000000180022e80     LIBCMT:_initsect_.obj
 0002:00008e88       __rtc_taa                  0000000180022e88     LIBCMT:_initsect_.obj
 0002:00008e90       __rtc_tzz                  0000000180022e90     LIBCMT:_initsect_.obj
 0002:0000a548       _TI2?AVbad_alloc@std@@     0000000180024548     libcpmt:xthrow.obj
 0002:0000a568       _CTA2?AVbad_alloc@std@@    0000000180024568     libcpmt:xthrow.obj
 0002:0000a580       _CT??_R0?AVbad_alloc@std@@@8??0bad_alloc@std@@QEAA@AEBV01@@Z24 0000000180024580     libcpmt:xthrow.obj
 0002:0000a5a8       _CT??_R0?AVexception@std@@@8??0exception@std@@QEAA@AEBV01@@Z24 00000001800245a8     libcpmt:xthrow.obj
 0002:0000a5d0       _CT??_R0?AVlogic_error@std@@@8??0logic_error@std@@QEAA@AEBV01@@Z24 00000001800245d0     libcpmt:xthrow.obj
 0002:0000a5f8       _TI3?AVlength_error@std@@  00000001800245f8     libcpmt:xthrow.obj
 0002:0000a618       _CTA3?AVlength_error@std@@ 0000000180024618     libcpmt:xthrow.obj
 0002:0000a638       _CT??_R0?AVlength_error@std@@@8??0length_error@std@@QEAA@AEBV01@@Z24 0000000180024638     libcpmt:xthrow.obj
 0002:0000a660       _TI3?AVout_of_range@std@@  0000000180024660     libcpmt:xthrow.obj
 0002:0000a680       _CTA3?AVout_of_range@std@@ 0000000180024680     libcpmt:xthrow.obj
 0002:0000a6a0       _CT??_R0?AVout_of_range@std@@@8??0out_of_range@std@@QEAA@AEBV01@@Z24 00000001800246a0     libcpmt:xthrow.obj
 0002:0000a6c8       _TI3?AVbad_array_new_length@std@@ 00000001800246c8     LIBCMT:throw_bad_alloc.obj
 0002:0000a6e8       _CTA3?AVbad_array_new_length@std@@ 00000001800246e8     LIBCMT:throw_bad_alloc.obj
 0002:0000a708       _CT??_R0?AVbad_array_new_length@std@@@8??0bad_array_new_length@std@@QEAA@AEBV01@@Z24 0000000180024708     LIBCMT:throw_bad_alloc.obj
 0002:0000a730       _TI2?AVbad_exception@std@@ 0000000180024730     libvcruntime:frame.obj
 0002:0000a750       _CTA2?AVbad_exception@std@@ 0000000180024750     libvcruntime:frame.obj
 0002:0000a768       _CT??_R0?AVbad_exception@std@@@8??0bad_exception@std@@QEAA@AEBV01@@Z24 0000000180024768     libvcruntime:frame.obj
 0002:0000a7e8       __IMPORT_DESCRIPTOR_KERNEL32 00000001800247e8     kernel32:KERNEL32.dll
 0002:0000a7fc       __IMPORT_DESCRIPTOR_USER32 00000001800247fc     user32:USER32.dll
 0002:0000a810       __IMPORT_DESCRIPTOR_nw     0000000180024810     nw:nw.dll
 0002:0000a824       __IMPORT_DESCRIPTOR_node   0000000180024824     node:node.dll
 0002:0000a838       __NULL_IMPORT_DESCRIPTOR   0000000180024838     kernel32:KERNEL32.dll
 0003:00000000       __scrt_native_dllmain_reason 0000000180026000     LIBCMT:utility.obj
 0003:00000008       __security_cookie          0000000180026008     LIBCMT:gs_cookie.obj
 0003:00000010       __security_cookie_complement 0000000180026010     LIBCMT:gs_cookie.obj
 0003:00000018       __isa_available            0000000180026018     LIBCMT:_cpu_disp_.obj
 0003:0000001c       __isa_enabled              000000018002601c     LIBCMT:_cpu_disp_.obj
 0003:00000020       __memcpy_nt_iters          0000000180026020     LIBCMT:_cpu_disp_.obj
 0003:00000040       _iob                       0000000180026040     libucrt:_file.obj
 0003:00000150       __abort_behavior           0000000180026150     libucrt:abort.obj
 0003:00000170       __acrt_initial_locale_data 0000000180026170     libucrt:nlsdata.obj
 0003:000002c8       __acrt_initial_locale_pointers 00000001800262c8     libucrt:nlsdata.obj
 0003:000002d8       __acrt_wide_c_locale_string 00000001800262d8     libucrt:nlsdata.obj
 0003:000002e0       __badioinfo                00000001800262e0     libucrt:ioinit.obj
 0003:00000420       __acrt_initial_multibyte_data 0000000180026420     libucrt:mbctype.obj
 0003:00000860       __globallocalestatus       0000000180026860     libucrt:glstatus.obj
 0003:00000870       __acrt_lconv_c             0000000180026870     libucrt:localeconv.obj
 0003:00000908       __acrt_lconv_static_decimal 0000000180026908     libucrt:localeconv.obj
 0003:0000090c       __acrt_lconv_static_W_decimal 000000018002690c     libucrt:localeconv.obj
 0003:00000930       _fltused                   0000000180026930     LIBCMT:fltused.obj
 0003:00000990       ??_R0?AVbad_alloc@std@@@8  0000000180026990     libcpmt:xthrow.obj
 0003:000009b8       ??_R0?AVexception@std@@@8  00000001800269b8     libcpmt:xthrow.obj
 0003:000009e0       ??_R0?AVlogic_error@std@@@8 00000001800269e0     libcpmt:xthrow.obj
 0003:00000a08       ??_R0?AVlength_error@std@@@8 0000000180026a08     libcpmt:xthrow.obj
 0003:00000a30       ??_R0?AVout_of_range@std@@@8 0000000180026a30     libcpmt:xthrow.obj
 0003:00000a58       ??_R0?AVtype_info@@@8      0000000180026a58     LIBCMT:std_type_info_static.obj
 0003:00000a78       ??_R0?AVbad_array_new_length@std@@@8 0000000180026a78     LIBCMT:throw_bad_alloc.obj
 0003:00000aa8       ??_R0?AVbad_exception@std@@@8 0000000180026aa8     libvcruntime:frame.obj
 0003:00000ad0       __scrt_current_native_startup_state 0000000180026ad0     LIBCMT:utility.obj
 0003:00000ad8       __scrt_native_startup_lock 0000000180026ad8     LIBCMT:utility.obj
 0003:00001090       __favor                    0000000180027090     LIBCMT:_cpu_disp_.obj
 0003:00001094       __scrt_debugger_hook_flag  0000000180027094     LIBCMT:utility_desktop.obj
 0003:000010a0       ?__type_info_root_node@@3U__type_info_node@@A 00000001800270a0     LIBCMT:tncleanup.obj
 0003:000010b0       ?_OptionsStorage@?1??__local_stdio_scanf_options@@9@4_KA 00000001800270b0     LIBCMT:default_local_stdio_options.obj
 0003:000010c0       ?_AtlBaseModule@ATL@@3VCAtlBaseModule@1@A 00000001800270c0     atls:atlbase.obj
 0003:00001120       __@@_PchSym_@00@UyrmzirvhUrmgvinvwrzgvUexgllohUzgohOmzgrevkilqPJFADFDFFIUlyqiUznwGEUhgwzucOlyq@4B2008FD98C1DD4 0000000180027120     atls:stdafx.obj
 0003:00001218       __pPurecall                0000000180027218     libvcruntime:purevirt_data.obj
 0003:00001220       ?m_pGetParameter@UnDecorator@@0P6APEADJ@ZEA 0000000180027220     libvcruntime:undname.obj
 0003:00001228       ?m_CHPENameOffset@UnDecorator@@0KA 0000000180027228     libvcruntime:undname.obj
 0003:0000122c       ?m_recursionLevel@UnDecorator@@0KA 000000018002722c     libvcruntime:undname.obj
 0003:00001230       ?pArgList@UnDecorator@@0PEAVReplicator@@EA 0000000180027230     libvcruntime:undname.obj
 0003:00001238       ?pZNameList@UnDecorator@@0PEAVReplicator@@EA 0000000180027238     libvcruntime:undname.obj
 0003:00001240       ?pTemplateArgList@UnDecorator@@0PEAVReplicator@@EA 0000000180027240     libvcruntime:undname.obj
 0003:00001248       ?gName@UnDecorator@@0PEBDEB 0000000180027248     libvcruntime:undname.obj
 0003:00001250       ?name@UnDecorator@@0PEBDEB 0000000180027250     libvcruntime:undname.obj
 0003:00001258       ?disableFlags@UnDecorator@@0KA 0000000180027258     libvcruntime:undname.obj
 0003:0000125c       ?fExplicitTemplateParams@UnDecorator@@0_NA 000000018002725c     libvcruntime:undname.obj
 0003:0000125d       ?fGetTemplateArgumentList@UnDecorator@@0_NA 000000018002725d     libvcruntime:undname.obj
 0003:00001288       ?__WinRTOutOfMemoryExceptionCallback@@3P6APEAXXZEA 0000000180027288     libvcruntime:ehhelpers.obj
 0003:000012a8       ?c_exit_complete@?1???R<lambda_6e4b09c48022b2350581041d5f6b0c4c>@@QEBA@XZ@4_NA 00000001800272a8     libucrt:exit.obj
 0003:000012b0       _nstream                   00000001800272b0     libucrt:_file.obj
 0003:000012b8       __piob                     00000001800272b8     libucrt:_file.obj
 0003:000012c0       _cflush                    00000001800272c0     libucrt:_file.obj
 0003:000013d8       _environ_table             00000001800273d8     libucrt:environment_initialization.obj
 0003:000013e0       _wenviron_table            00000001800273e0     libucrt:environment_initialization.obj
 0003:000013e8       __dcrt_initial_wide_environment 00000001800273e8     libucrt:environment_initialization.obj
 0003:000013f0       __dcrt_initial_narrow_environment 00000001800273f0     libucrt:environment_initialization.obj
 0003:000013f8       __acrt_atexit_table        00000001800273f8     libucrt:onexit.obj
 0003:00001410       __acrt_at_quick_exit_table 0000000180027410     libucrt:onexit.obj
 0003:00001664       __acrt_locale_changed_data 0000000180027664     libucrt:wsetlocale.obj
 0003:00001668       __acrt_current_locale_data 0000000180027668     libucrt:nlsdata.obj
 0003:00001820       __pioinfo                  0000000180027820     libucrt:ioinit.obj
 0003:00001c20       _nhandle                   0000000180027c20     libucrt:ioinit.obj
 0003:00001c38       __acrt_stdout_buffer       0000000180027c38     libucrt:_sftbuf.obj
 0003:00001c40       __acrt_stderr_buffer       0000000180027c40     libucrt:_sftbuf.obj
 0003:00001c48       __acrt_current_multibyte_data 0000000180027c48     libucrt:mbctype.obj
 0003:00001c50       _mbctype                   0000000180027c50     libucrt:mbctype.obj
 0003:00001c58       _mbcasemap                 0000000180027c58     libucrt:mbctype.obj
 0003:00001c68       __argc                     0000000180027c68     libucrt:argv_data.obj
 0003:00001c70       __argv                     0000000180027c70     libucrt:argv_data.obj
 0003:00001c78       __wargv                    0000000180027c78     libucrt:argv_data.obj
 0003:00001c80       _acmdln                    0000000180027c80     libucrt:argv_data.obj
 0003:00001c88       _wcmdln                    0000000180027c88     libucrt:argv_data.obj
 0003:00001c90       _pgmptr                    0000000180027c90     libucrt:argv_data.obj
 0003:00001c98       __acrt_heap                0000000180027c98     libucrt:heap_handle.obj
 0003:00001cc8       __acrt_lconv_static_null   0000000180027cc8     libucrt:localeconv.obj
 0003:00001ccc       __acrt_lconv_static_W_null 0000000180027ccc     libucrt:localeconv.obj
 0003:00001ce0       __fma3_is_available        0000000180027ce0     libucrt:fma3_available.obj
 0003:00001ce4       __use_fma3_lib             0000000180027ce4     libucrt:fma3_available.obj
 0003:00001cf0       ?isAddedRegistered@@3_NA   0000000180027cf0     detection.obj
 0003:00001cf1       ?isRemovedRegistered@@3_NA 0000000180027cf1     detection.obj
 0003:00001cf2       ?isAdded@@3_NA             0000000180027cf2     detection_win.obj
 0003:00001cf3       ?isRunning@@3_NA           0000000180027cf3     detection_win.obj
 0003:00001cf4       ?threadId@@3KA             0000000180027cf4     detection_win.obj
 0003:00001cf8       ?addedCallback@@3PEAVCallback@Nan@@EA 0000000180027cf8     detection.obj
 0003:00001d00       ?removedCallback@@3PEAVCallback@Nan@@EA 0000000180027d00     detection.obj
 0003:00001d08       ?deviceChangedRegisteredEvent@@3PEAXEA 0000000180027d08     detection_win.obj
 0003:00001d10       ?deviceChangedSentEvent@@3PEAXEA 0000000180027d10     detection_win.obj
 0003:00001d18       ?DllSetupDiDestroyDeviceInfoList@@3P6AHPEAX@ZEA 0000000180027d18     detection_win.obj
 0003:00001d20       ?int_signal@@3Uuv_signal_s@@A 0000000180027d20     detection_win.obj
 0003:00001e28       ?DllSetupDiEnumDeviceInfo@@3P6AHPEAXKPEAU_SP_DEVINFO_DATA@@@ZEA 0000000180027e28     detection_win.obj
 0003:00001e30       ?term_signal@@3Uuv_signal_s@@A 0000000180027e30     detection_win.obj
 0003:00001f38       ?DllSetupDiGetDeviceRegistryProperty@@3P6AHPEAXPEAU_SP_DEVINFO_DATA@@KPEAKPEAEK2@ZEA 0000000180027f38     detection_win.obj
 0003:00001f40       ?DllSetupDiGetClassDevs@@3P6APEAXPEBU_GUID@@PEBDPEAUHWND__@@K@ZEA 0000000180027f40     detection_win.obj
 0003:00001f48       ?DllSetupDiGetDeviceInstanceId@@3P6AHPEAXPEAU_SP_DEVINFO_DATA@@PEADKPEAK@ZEA 0000000180027f48     detection_win.obj
 0003:00001f50       ?hinstLib@@3PEAUHINSTANCE__@@EA 0000000180027f50     detection_win.obj
 0003:00001f58       ?currentDevice@@3PEAUListResultItem_t@@EA 0000000180027f58     detection_win.obj
 0003:00001f60       ?deviceMap@@3V?$map@V?$basic_string@DU?$char_traits@D@std@@V?$allocator@D@2@@std@@PEAU_DeviceItem_t@@U?$less@V?$basic_string@DU?$char_traits@D@std@@V?$allocator@D@2@@std@@@2@V?$allocator@U?$pair@$$CBV?$basic_string@DU?$char_traits@D@std@@V?$allocator@D@2@@std@@PEAU_DeviceItem_t@@@std@@@2@@std@@A 0000000180027f60     deviceList.obj
 0003:00001f80       ?m_bInitFailed@CAtlBaseModule@ATL@@2_NA 0000000180027f80     detection_win.obj
 0003:00001f84       ??_B?1??GetInstance@CAtlStringMgr@ATL@@SAPEAUIAtlStringMgr@2@XZ@51 0000000180027f84     detection_win.obj
 0003:00001f88       ?strHeap@?1??GetInstance@CAtlStringMgr@ATL@@SAPEAUIAtlStringMgr@3@XZ@4VCWin32Heap@3@A 0000000180027f88     detection_win.obj
 0003:00001fa0       ?_OptionsStorage@?1??__local_stdio_printf_options@@9@4_KA 0000000180027fa0     detection_win.obj
 0003:00001fa8       ?strMgr@?1??GetInstance@CAtlStringMgr@ATL@@SAPEAUIAtlStringMgr@3@XZ@4V23@A 0000000180027fa8     detection_win.obj
 0003:00001fd8       __dyn_tls_init_callback    0000000180027fd8     <common>
 0003:00001fe0       __scrt_ucrt_dll_is_in_use  0000000180027fe0     <common>

 entry point at        0001:000058e0

 Static symbols

 0000:fffd4000       .debug$S                   0000000180000000     kernel32:KERNEL32.dll
 0000:fffd4000       .debug$S                   0000000180000000     kernel32:KERNEL32.dll
 0000:fffd4000       .debug$S                   0000000180000000     kernel32:KERNEL32.dll
 0000:fffd4000       .debug$S                   0000000180000000     kernel32:KERNEL32.dll
 0000:fffd4000       .debug$S                   0000000180000000     kernel32:KERNEL32.dll
 0000:fffd4000       .debug$S                   0000000180000000     kernel32:KERNEL32.dll
 0000:fffd4000       .debug$S                   0000000180000000     detection.exp
 0000:fffd4000       .debug$S                   0000000180000000     kernel32:KERNEL32.dll
 0000:fffd4000       .debug$S                   0000000180000000     kernel32:KERNEL32.dll
 0000:fffd4000       .debug$S                   0000000180000000     kernel32:KERNEL32.dll
 0000:fffd4000       .debug$S                   0000000180000000     kernel32:KERNEL32.dll
 0000:fffd4000       .debug$S                   0000000180000000     kernel32:KERNEL32.dll
 0000:fffd4000       .debug$S                   0000000180000000     kernel32:KERNEL32.dll
 0000:fffd4000       .debug$S                   0000000180000000     kernel32:KERNEL32.dll
 0000:fffd4000       .debug$S                   0000000180000000     kernel32:KERNEL32.dll
 0000:fffd4000       .debug$S                   0000000180000000     kernel32:KERNEL32.dll
 0000:fffd4000       .debug$S                   0000000180000000     kernel32:KERNEL32.dll
 0000:fffd4000       .debug$S                   0000000180000000     kernel32:KERNEL32.dll
 0000:fffd4000       .debug$S                   0000000180000000     kernel32:KERNEL32.dll
 0000:fffd4000       .debug$S                   0000000180000000     kernel32:KERNEL32.dll
 0000:fffd4000       .debug$S                   0000000180000000     kernel32:KERNEL32.dll
 0000:fffd4000       .debug$S                   0000000180000000     kernel32:KERNEL32.dll
 0000:fffd4000       .debug$S                   0000000180000000     kernel32:KERNEL32.dll
 0000:fffd4000       .debug$S                   0000000180000000     kernel32:KERNEL32.dll
 0000:fffd4000       .debug$S                   0000000180000000     kernel32:KERNEL32.dll
 0000:fffd4000       .debug$S                   0000000180000000     kernel32:KERNEL32.dll
 0000:fffd4000       .debug$S                   0000000180000000     kernel32:KERNEL32.dll
 0000:fffd4000       .debug$S                   0000000180000000     kernel32:KERNEL32.dll
 0000:fffd4000       .debug$S                   0000000180000000     kernel32:KERNEL32.dll
 0000:fffd4000       .debug$S                   0000000180000000     kernel32:KERNEL32.dll
 0000:fffd4000       .debug$S                   0000000180000000     kernel32:KERNEL32.dll
 0000:fffd4000       .debug$S                   0000000180000000     kernel32:KERNEL32.dll
 0000:fffd4000       .debug$S                   0000000180000000     kernel32:KERNEL32.dll
 0000:fffd4000       .debug$S                   0000000180000000     kernel32:KERNEL32.dll
 0000:fffd4000       .debug$S                   0000000180000000     kernel32:KERNEL32.dll
 0000:fffd4000       .debug$S                   0000000180000000     kernel32:KERNEL32.dll
 0000:fffd4000       .debug$S                   0000000180000000     kernel32:KERNEL32.dll
 0000:fffd4000       .debug$S                   0000000180000000     kernel32:KERNEL32.dll
 0000:fffd4000       .debug$S                   0000000180000000     kernel32:KERNEL32.dll
 0000:fffd4000       .debug$S                   0000000180000000     kernel32:KERNEL32.dll
 0000:fffd4000       .debug$S                   0000000180000000     kernel32:KERNEL32.dll
 0000:fffd4000       .debug$S                   0000000180000000     kernel32:KERNEL32.dll
 0000:fffd4000       .debug$S                   0000000180000000     kernel32:KERNEL32.dll
 0000:fffd4000       .debug$S                   0000000180000000     kernel32:KERNEL32.dll
 0000:fffd4000       .debug$S                   0000000180000000     kernel32:KERNEL32.dll
 0000:fffd4000       .debug$S                   0000000180000000     kernel32:KERNEL32.dll
 0000:fffd4000       .debug$S                   0000000180000000     kernel32:KERNEL32.dll
 0000:fffd4000       .debug$S                   0000000180000000     kernel32:KERNEL32.dll
 0000:fffd4000       .debug$S                   0000000180000000     kernel32:KERNEL32.dll
 0000:fffd4000       .debug$S                   0000000180000000     kernel32:KERNEL32.dll
 0000:fffd4000       .debug$S                   0000000180000000     kernel32:KERNEL32.dll
 0000:fffd4000       .debug$S                   0000000180000000     user32:USER32.dll
 0000:fffd4000       .debug$S                   0000000180000000     kernel32:KERNEL32.dll
 0000:fffd4000       .debug$S                   0000000180000000     user32:USER32.dll
 0000:fffd4000       .debug$S                   0000000180000000     kernel32:KERNEL32.dll
 0000:fffd4000       .debug$S                   0000000180000000     user32:USER32.dll
 0000:fffd4000       .debug$S                   0000000180000000     kernel32:KERNEL32.dll
 0000:fffd4000       .debug$S                   0000000180000000     user32:USER32.dll
 0000:fffd4000       .debug$S                   0000000180000000     kernel32:KERNEL32.dll
 0000:fffd4000       .debug$S                   0000000180000000     user32:USER32.dll
 0000:fffd4000       .debug$S                   0000000180000000     kernel32:KERNEL32.dll
 0000:fffd4000       .debug$S                   0000000180000000     user32:USER32.dll
 0000:fffd4000       .debug$S                   0000000180000000     kernel32:KERNEL32.dll
 0000:fffd4000       .debug$S                   0000000180000000     user32:USER32.dll
 0000:fffd4000       .debug$S                   0000000180000000     kernel32:KERNEL32.dll
 0000:fffd4000       .debug$S                   0000000180000000     kernel32:KERNEL32.dll
 0000:fffd4000       .debug$S                   0000000180000000     kernel32:KERNEL32.dll
 0000:fffd4000       .debug$S                   0000000180000000     nw:nw.dll
 0000:fffd4000       .debug$S                   0000000180000000     kernel32:KERNEL32.dll
 0000:fffd4000       .debug$S                   0000000180000000     nw:nw.dll
 0000:fffd4000       .debug$S                   0000000180000000     kernel32:KERNEL32.dll
 0000:fffd4000       .debug$S                   0000000180000000     nw:nw.dll
 0000:fffd4000       .debug$S                   0000000180000000     kernel32:KERNEL32.dll
 0000:fffd4000       .debug$S                   0000000180000000     nw:nw.dll
 0000:fffd4000       .debug$S                   0000000180000000     kernel32:KERNEL32.dll
 0000:fffd4000       .debug$S                   0000000180000000     nw:nw.dll
 0000:fffd4000       .debug$S                   0000000180000000     kernel32:KERNEL32.dll
 0000:fffd4000       .debug$S                   0000000180000000     nw:nw.dll
 0000:fffd4000       .debug$S                   0000000180000000     kernel32:KERNEL32.dll
 0000:fffd4000       .debug$S                   0000000180000000     nw:nw.dll
 0000:fffd4000       .debug$S                   0000000180000000     kernel32:KERNEL32.dll
 0000:fffd4000       .debug$S                   0000000180000000     nw:nw.dll
 0000:fffd4000       .debug$S                   0000000180000000     kernel32:KERNEL32.dll
 0000:fffd4000       .debug$S                   0000000180000000     nw:nw.dll
 0000:fffd4000       .debug$S                   0000000180000000     kernel32:KERNEL32.dll
 0000:fffd4000       .debug$S                   0000000180000000     nw:nw.dll
 0000:fffd4000       .debug$S                   0000000180000000     kernel32:KERNEL32.dll
 0000:fffd4000       .debug$S                   0000000180000000     nw:nw.dll
 0000:fffd4000       .debug$S                   0000000180000000     kernel32:KERNEL32.dll
 0000:fffd4000       .debug$S                   0000000180000000     nw:nw.dll
 0000:fffd4000       .debug$S                   0000000180000000     kernel32:KERNEL32.dll
 0000:fffd4000       .debug$S                   0000000180000000     nw:nw.dll
 0000:fffd4000       .debug$S                   0000000180000000     kernel32:KERNEL32.dll
 0000:fffd4000       .debug$S                   0000000180000000     kernel32:KERNEL32.dll
 0000:fffd4000       .debug$S                   0000000180000000     nw:nw.dll
 0000:fffd4000       .debug$S                   0000000180000000     kernel32:KERNEL32.dll
 0000:fffd4000       .debug$S                   0000000180000000     nw:nw.dll
 0000:fffd4000       .debug$S                   0000000180000000     kernel32:KERNEL32.dll
 0000:fffd4000       .debug$S                   0000000180000000     nw:nw.dll
 0000:fffd4000       .debug$S                   0000000180000000     kernel32:KERNEL32.dll
 0000:fffd4000       .debug$S                   0000000180000000     nw:nw.dll
 0000:fffd4000       .debug$S                   0000000180000000     kernel32:KERNEL32.dll
 0000:fffd4000       .debug$S                   0000000180000000     nw:nw.dll
 0000:fffd4000       .debug$S                   0000000180000000     kernel32:KERNEL32.dll
 0000:fffd4000       .debug$S                   0000000180000000     nw:nw.dll
 0000:fffd4000       .debug$S                   0000000180000000     kernel32:KERNEL32.dll
 0000:fffd4000       .debug$S                   0000000180000000     nw:nw.dll
 0000:fffd4000       .debug$S                   0000000180000000     kernel32:KERNEL32.dll
 0000:fffd4000       .debug$S                   0000000180000000     nw:nw.dll
 0000:fffd4000       .debug$S                   0000000180000000     kernel32:KERNEL32.dll
 0000:fffd4000       .debug$S                   0000000180000000     nw:nw.dll
 0000:fffd4000       .debug$S                   0000000180000000     kernel32:KERNEL32.dll
 0000:fffd4000       .debug$S                   0000000180000000     nw:nw.dll
 0000:fffd4000       .debug$S                   0000000180000000     kernel32:KERNEL32.dll
 0000:fffd4000       .debug$S                   0000000180000000     nw:nw.dll
 0000:fffd4000       .debug$S                   0000000180000000     kernel32:KERNEL32.dll
 0000:fffd4000       .debug$S                   0000000180000000     nw:nw.dll
 0000:fffd4000       .debug$S                   0000000180000000     kernel32:KERNEL32.dll
 0000:fffd4000       .debug$S                   0000000180000000     nw:nw.dll
 0000:fffd4000       .debug$S                   0000000180000000     kernel32:KERNEL32.dll
 0000:fffd4000       .debug$S                   0000000180000000     nw:nw.dll
 0000:fffd4000       .debug$S                   0000000180000000     kernel32:KERNEL32.dll
 0000:fffd4000       .debug$S                   0000000180000000     nw:nw.dll
 0000:fffd4000       .debug$S                   0000000180000000     kernel32:KERNEL32.dll
 0000:fffd4000       .debug$S                   0000000180000000     nw:nw.dll
 0000:fffd4000       .debug$S                   0000000180000000     kernel32:KERNEL32.dll
 0000:fffd4000       .debug$S                   0000000180000000     nw:nw.dll
 0000:fffd4000       .debug$S                   0000000180000000     kernel32:KERNEL32.dll
 0000:fffd4000       .debug$S                   0000000180000000     nw:nw.dll
 0000:fffd4000       .debug$S                   0000000180000000     kernel32:KERNEL32.dll
 0000:fffd4000       .debug$S                   0000000180000000     nw:nw.dll
 0000:fffd4000       .debug$S                   0000000180000000     kernel32:KERNEL32.dll
 0000:fffd4000       .debug$S                   0000000180000000     nw:nw.dll
 0000:fffd4000       .debug$S                   0000000180000000     kernel32:KERNEL32.dll
 0000:fffd4000       .debug$S                   0000000180000000     nw:nw.dll
 0000:fffd4000       .debug$S                   0000000180000000     kernel32:KERNEL32.dll
 0000:fffd4000       .debug$S                   0000000180000000     nw:nw.dll
 0000:fffd4000       .debug$S                   0000000180000000     node:node.dll
 0000:fffd4000       .debug$S                   0000000180000000     nw:nw.dll
 0000:fffd4000       .debug$S                   0000000180000000     node:node.dll
 0000:fffd4000       .debug$S                   0000000180000000     nw:nw.dll
 0000:fffd4000       .debug$S                   0000000180000000     node:node.dll
 0000:fffd4000       .debug$S                   0000000180000000     nw:nw.dll
 0000:fffd4000       .debug$S                   0000000180000000     node:node.dll
 0000:fffd4000       .debug$S                   0000000180000000     nw:nw.dll
 0000:fffd4000       .debug$S                   0000000180000000     node:node.dll
 0000:fffd4000       .debug$S                   0000000180000000     node:node.dll
 0000:fffd4000       .debug$S                   0000000180000000     node:node.dll
 0000:fffd4000       .debug$S                   0000000180000000     node:node.dll
 0000:fffd4000       .debug$S                   0000000180000000     node:node.dll
 0001:00000000       ??__EdeviceMap@@YAXXZ      0000000180001000 f   deviceList.obj
 0001:00000038       ??__E_AtlBaseModule@ATL@@YAXXZ 0000000180001038 f   atls:atlbase.obj
 0001:00000060       ?FunctionCallbackWrapper@imp@Nan@@YAXAEBV?$FunctionCallbackInfo@VValue@v8@@@v8@@@Z 0000000180001060 f   detection.obj
 0001:00001870       _register_detection        0000000180002870 f   detection.obj
 0001:00005150       $$000000                   0000000180006150     LIBCMT:_amdsecgs_.obj
 0001:000055c0       ?dllmain_crt_dispatch@@YAHQEAUHINSTANCE__@@KQEAX@Z 00000001800065c0 f   LIBCMT:dll_dllmain.obj
 0001:00005610       ?dllmain_crt_process_attach@@YAHQEAUHINSTANCE__@@QEAX@Z 0000000180006610 f   LIBCMT:dll_dllmain.obj
 0001:00005728       ?dllmain_crt_process_detach@@YAH_N@Z 0000000180006728 f   LIBCMT:dll_dllmain.obj
 0001:000057ac       ?dllmain_dispatch@@YAHQEAUHINSTANCE__@@KQEAX@Z 00000001800067ac f   LIBCMT:dll_dllmain.obj
 0001:00005b04       capture_current_context    0000000180006b04 f   LIBCMT:gs_report.obj
 0001:00005b74       capture_previous_context   0000000180006b74 f   LIBCMT:gs_report.obj
 0001:00006890       $$000000                   0000000180007890     libvcruntime:memset.obj
 0001:0000698c       MsetTab                    000000018000798c     libvcruntime:memset.obj
 0001:00006ab0       $$000000                   0000000180007ab0     libvcruntime:memcpy.obj
 0001:00006b57       MoveSmall                  0000000180007b57     libvcruntime:memcpy.obj
 0001:00007140       ?try_get_function@@YAPEAXW4function_id@?A0x89697e75@@QEBDQEBW4module_id@2@2@Z 0000000180008140 f   libvcruntime:winapi_downlevel.obj
 0001:00007530       $$000000                   0000000180008530     libvcruntime:_jmpuwind_.obj
 0001:00007d28       ?CatchIt@@YAXPEAUEHExceptionRecord@@PEA_KPEAU_CONTEXT@@PEAU_xDISPATCHER_CONTEXT@@PEBU_s_FuncInfo@@PEBU_s_HandlerType@@PEBU_s_CatchableType@@PEBU_s_TryBlockMapEntry@@H1EE@Z 0000000180008d28 f   libvcruntime:frame.obj
 0001:00007dec       ?ExFilterRethrow@@YAHPEAU_EXCEPTION_POINTERS@@PEAUEHExceptionRecord@@PEAH@Z 0000000180008dec f   libvcruntime:frame.obj
 0001:00007e74       ?FindHandler@@YAXPEAUEHExceptionRecord@@PEA_KPEAU_CONTEXT@@PEAU_xDISPATCHER_CONTEXT@@PEBU_s_FuncInfo@@EH1@Z 0000000180008e74 f   libvcruntime:frame.obj
 0001:00008324       ?FindHandlerForForeignException@@YAXPEAUEHExceptionRecord@@PEA_KPEAU_CONTEXT@@PEAU_xDISPATCHER_CONTEXT@@PEBU_s_FuncInfo@@HH1@Z 0000000180009324 f   libvcruntime:frame.obj
 0001:0000857c       ?IsInExceptionSpec@@YAEPEAUEHExceptionRecord@@PEBU_s_ESTypeList@@@Z 000000018000957c f   libvcruntime:frame.obj
 0001:00009040       $$000000                   000000018000a040     libvcruntime:handlers.obj
 0001:00009454       ??$?RV<lambda_d80eeec6fff315bfe5c115232f3240e3>@@AEAV<lambda_6e4b09c48022b2350581041d5f6b0c4c>@@V<lambda_2358e3775559c9db80273638284d5e45>@@@?$__crt_seh_guarded_call@X@@QEAAX$$QEAV<lambda_d80eeec6fff315bfe5c115232f3240e3>@@AEAV<lambda_6e4b09c48022b2350581041d5f6b0c4c>@@$$QEAV<lambda_2358e3775559c9db80273638284d5e45>@@@Z 000000018000a454 f   libucrt:exit.obj
 0001:0000948c       ??R<lambda_6e4b09c48022b2350581041d5f6b0c4c>@@QEBA@XZ 000000018000a48c f   libucrt:exit.obj
 0001:00009564       ?atexit_exception_filter@@YAHK@Z 000000018000a564 f   libucrt:exit.obj
 0001:00009570       ?common_exit@@YAXHW4_crt_exit_cleanup_mode@@W4_crt_exit_return_mode@@@Z 000000018000a570 f   libucrt:exit.obj
 0001:0000962c       ?exit_or_terminate_process@@YAXI@Z 000000018000a62c f   libucrt:exit.obj
 0001:00009678       ?try_cor_exit_process@@YAXI@Z 000000018000a678 f   libucrt:exit.obj
 0001:000098f8       ?internal_islower_l@@YA_NHQEAU__crt_locale_pointers@@@Z 000000018000a8f8 f   libucrt:tolower_toupper.obj
 0001:00009948       ?internal_isupper_l@@YA_NHQEAU__crt_locale_pointers@@@Z 000000018000a948 f   libucrt:tolower_toupper.obj
 0001:00009ee0       ??$?RV<lambda_a62c933ada0517137acf5807a1eeac1f>@@AEAV<lambda_a31071773b9a94e445cbd5d04ef99106>@@V<lambda_56065050dbf3ada7e59a83db45153de3>@@@?$__crt_seh_guarded_call@H@@QEAAH$$QEAV<lambda_a62c933ada0517137acf5807a1eeac1f>@@AEAV<lambda_a31071773b9a94e445cbd5d04ef99106>@@$$QEAV<lambda_56065050dbf3ada7e59a83db45153de3>@@@Z 000000018000aee0 f   libucrt:output.obj
 0001:00009f20       ??$common_vsprintf@Vformat_validation_base@__crt_stdio_output@@D@@YAH_KQEAD0QEBDQEAU__crt_locale_pointers@@1@Z 000000018000af20 f   libucrt:output.obj
 0001:0000a3bc       ??R<lambda_a31071773b9a94e445cbd5d04ef99106>@@QEBAHXZ 000000018000b3bc f   libucrt:output.obj
 0001:0000c938       ??$parse_command_line@D@@YAXPEADPEAPEAD0PEA_K2@Z 000000018000d938 f   libucrt:argv_parsing.obj
 0001:0000cce4       ??$common_initialize_environment_nolock@D@@YAHXZ 000000018000dce4 f   libucrt:environment_initialization.obj
 0001:0000cd50       ??$create_environment@D@@YAQEAPEADQEAD@Z 000000018000dd50 f   libucrt:environment_initialization.obj
 0001:0000ce58       ??$free_environment@_W@@YAXQEAPEA_W@Z 000000018000de58 f   libucrt:environment_initialization.obj
 0001:0000ce58       ??$free_environment@D@@YAXQEAPEAD@Z 000000018000de58 f   libucrt:environment_initialization.obj
 0001:0000ce9c       ??$uninitialize_environment_internal@D@@YAXAEAPEAPEAD@Z 000000018000de9c f   libucrt:environment_initialization.obj
 0001:0000ceb8       ??$uninitialize_environment_internal@_W@@YAXAEAPEAPEA_W@Z 000000018000deb8 f   libucrt:environment_initialization.obj
 0001:0000cf14       ??$?RV<lambda_7777bce6b2f8c936911f934f8298dc43>@@AEAV<lambda_f03950bc5685219e0bcd2087efbe011e>@@V<lambda_3883c3dff614d5e0c5f61bb1ac94921c>@@@?$__crt_seh_guarded_call@H@@QEAAH$$QEAV<lambda_7777bce6b2f8c936911f934f8298dc43>@@AEAV<lambda_f03950bc5685219e0bcd2087efbe011e>@@$$QEAV<lambda_3883c3dff614d5e0c5f61bb1ac94921c>@@@Z 000000018000df14 f   libucrt:onexit.obj
 0001:0000cf50       ??$?RV<lambda_8369fcb7c4df1e85de37618bd2b85f07>@@AEAV<lambda_a10e4b102d4a2c3aac6f4f48bbdf488f>@@V<lambda_5b7707bd6d7a0c4713179f36c7fd995d>@@@?$__crt_seh_guarded_call@H@@QEAAH$$QEAV<lambda_8369fcb7c4df1e85de37618bd2b85f07>@@AEAV<lambda_a10e4b102d4a2c3aac6f4f48bbdf488f>@@$$QEAV<lambda_5b7707bd6d7a0c4713179f36c7fd995d>@@@Z 000000018000df50 f   libucrt:onexit.obj
 0001:0000cf8c       ??R<lambda_a10e4b102d4a2c3aac6f4f48bbdf488f>@@QEBAHXZ 000000018000df8c f   libucrt:onexit.obj
 0001:0000d150       ??R<lambda_f03950bc5685219e0bcd2087efbe011e>@@QEBAHXZ 000000018000e150 f   libucrt:onexit.obj
 0001:0000d370       initialize_global_variables 000000018000e370 f   libucrt:initialization.obj
 0001:0000d384       initialize_c               000000018000e384 f   libucrt:initialization.obj
 0001:0000d3a8       initialize_global_state_isolation 000000018000e3a8 f   libucrt:initialization.obj
 0001:0000d3a8       uninitialize_global_state_isolation 000000018000e3a8 f   libucrt:initialization.obj
 0001:0000d3a8       initialize_environment     000000018000e3a8 f   libucrt:initialization.obj
 0001:0000d3a8       uninitialize_c             000000018000e3a8 f   libucrt:initialization.obj
 0001:0000d3a8       report_memory_leaks        000000018000e3a8 f   libucrt:initialization.obj
 0001:0000d3ac       uninitialize_environment   000000018000e3ac f   libucrt:initialization.obj
 0001:0000d3bc       initialize_pointers        000000018000e3bc f   libucrt:initialization.obj
 0001:0000d410       uninitialize_vcruntime     000000018000e410 f   libucrt:initialization.obj
 0001:0000d418       uninitialize_allocated_memory 000000018000e418 f   libucrt:initialization.obj
 0001:0000d458       uninitialize_allocated_io_buffers 000000018000e458 f   libucrt:initialization.obj
 0001:0000d7a0       $$000000                   000000018000e7a0     libucrt:strncmp.obj
 0001:0000d830       ??$?RV<lambda_0ae27a3a962d80f24befdcbee591983d>@@AEAV<lambda_8d0ee55de4b1038c4002e0adecdf1839>@@V<lambda_dc504788e8f1664fe9b84e20bfb512f2>@@@?$__crt_seh_guarded_call@X@@QEAAX$$QEAV<lambda_0ae27a3a962d80f24befdcbee591983d>@@AEAV<lambda_8d0ee55de4b1038c4002e0adecdf1839>@@$$QEAV<lambda_dc504788e8f1664fe9b84e20bfb512f2>@@@Z 000000018000e830 f   libucrt:per_thread_data.obj
 0001:0000d870       ??$?RV<lambda_2d41944a1d46af3157314b8a01080d33>@@AEAV<lambda_8f455de75cd7d7f24b4096f044d8b9e6>@@V<lambda_aa500f224e6afead328df44964fe2772>@@@?$__crt_seh_guarded_call@X@@QEAAX$$QEAV<lambda_2d41944a1d46af3157314b8a01080d33>@@AEAV<lambda_8f455de75cd7d7f24b4096f044d8b9e6>@@$$QEAV<lambda_aa500f224e6afead328df44964fe2772>@@@Z 000000018000e870 f   libucrt:per_thread_data.obj
 0001:0000d8b0       ??$?RV<lambda_aa87e3671a710a21b5dc78c0bdf72e11>@@AEAV<lambda_92619d2358a28f41a33ba319515a20b9>@@V<lambda_6992ecaafeb10aed2b74cb1fae11a551>@@@?$__crt_seh_guarded_call@X@@QEAAX$$QEAV<lambda_aa87e3671a710a21b5dc78c0bdf72e11>@@AEAV<lambda_92619d2358a28f41a33ba319515a20b9>@@$$QEAV<lambda_6992ecaafeb10aed2b74cb1fae11a551>@@@Z 000000018000e8b0 f   libucrt:per_thread_data.obj
 0001:0000d8f8       ??$?RV<lambda_f2e299630e499de9f9a165e60fcd3db5>@@AEAV<lambda_2ae9d31cdba2644fcbeaf08da7c24588>@@V<lambda_40d01ff24d0e7b3814fdbdcee8eab3c7>@@@?$__crt_seh_guarded_call@X@@QEAAX$$QEAV<lambda_f2e299630e499de9f9a165e60fcd3db5>@@AEAV<lambda_2ae9d31cdba2644fcbeaf08da7c24588>@@$$QEAV<lambda_40d01ff24d0e7b3814fdbdcee8eab3c7>@@@Z 000000018000e8f8 f   libucrt:per_thread_data.obj
 0001:0000d958       ?construct_ptd_array@@YAXQEAU__acrt_ptd@@@Z 000000018000e958 f   libucrt:per_thread_data.obj
 0001:0000da28       ?destroy_fls@@YAXPEAX@Z    000000018000ea28 f   libucrt:per_thread_data.obj
 0001:0000da48       ?destroy_ptd_array@@YAXQEAU__acrt_ptd@@@Z 000000018000ea48 f   libucrt:per_thread_data.obj
 0001:0000db40       ?replace_current_thread_locale_nolock@@YAXQEAU__acrt_ptd@@QEAU__crt_locale_data@@@Z 000000018000eb40 f   libucrt:per_thread_data.obj
 0001:0000df64       ?x_ismbbtype_l@@YAHPEAU__crt_locale_pointers@@IHH@Z 000000018000ef64 f   libucrt:ismbbyte.obj
 0001:0000e058       ??$?RV<lambda_410d79af7f07d98d83a3f525b3859a53>@@AEAV<lambda_3e16ef9562a7dcce91392c22ab16ea36>@@V<lambda_38119f0e861e05405d8a144b9b982f0a>@@@?$__crt_seh_guarded_call@X@@QEAAX$$QEAV<lambda_410d79af7f07d98d83a3f525b3859a53>@@AEAV<lambda_3e16ef9562a7dcce91392c22ab16ea36>@@$$QEAV<lambda_38119f0e861e05405d8a144b9b982f0a>@@@Z 000000018000f058 f   libucrt:wsetlocale.obj
 0001:0000e288       ?__acrt_LCMapStringA_stat@@YAHPEAU__crt_locale_pointers@@PEB_WKPEBDHPEADHHH@Z 000000018000f288 f   libucrt:lcmapstringa.obj
 0001:0000e6f0       ?try_get_function@@YAPEAXW4function_id@?A0x391cf84c@@QEBDQEBW4module_id@2@2@Z 000000018000f6f0 f   libucrt:winapi_thunks.obj
 0001:0000ed14       ??$?RV<lambda_842d9ff0dc9ef11c61343bbaebe7f885>@@AEAV<lambda_c5860995281e5c4ce005b3de8f5874ee>@@V<lambda_d90129c13df834fdcbf8d2b88dafcf2d>@@@?$__crt_seh_guarded_call@X@@QEAAX$$QEAV<lambda_842d9ff0dc9ef11c61343bbaebe7f885>@@AEAV<lambda_c5860995281e5c4ce005b3de8f5874ee>@@$$QEAV<lambda_d90129c13df834fdcbf8d2b88dafcf2d>@@@Z 000000018000fd14 f   libucrt:fflush.obj
 0001:0000edb0       ??$?RV<lambda_886d6c58226a84441f68b9f2b8217b83>@@AEAV<lambda_ab61a845afdef5b7c387490eaf3616ee>@@V<lambda_f7f22ab5edc0698d5f6905b0d3f44752>@@@?$__crt_seh_guarded_call@X@@QEAAX$$QEAV<lambda_886d6c58226a84441f68b9f2b8217b83>@@AEAV<lambda_ab61a845afdef5b7c387490eaf3616ee>@@$$QEAV<lambda_f7f22ab5edc0698d5f6905b0d3f44752>@@@Z 000000018000fdb0 f   libucrt:fflush.obj
 0001:0000ee90       ?common_flush_all@@YAH_N@Z 000000018000fe90 f   libucrt:fflush.obj
 0001:0000f000       ?initialize_inherited_file_handles_nolock@@YAXXZ 0000000180010000 f   libucrt:ioinit.obj
 0001:0000f0ec       ?initialize_stdio_handles_nolock@@YAXXZ 00000001800100ec f   libucrt:ioinit.obj
 0001:0000f980       ?fp_format_a@@YAHQEBNPEAD_KQEAD2H_NIQEAU__crt_locale_pointers@@@Z 0000000180010980 f   libucrt:cvt.obj
 0001:0000fce8       ?fp_format_e@@YAHQEBNQEAD_K12H_NIQEAU__crt_locale_pointers@@@Z 0000000180010ce8 f   libucrt:cvt.obj
 0001:0000fdc4       ?fp_format_e_internal@@YAHQEAD_KH_NIQEAU_strflt@@2QEAU__crt_locale_pointers@@@Z 0000000180010dc4 f   libucrt:cvt.obj
 0001:0000ff98       ?fp_format_f_internal@@YAHQEAD_KHQEAU_strflt@@_NQEAU__crt_locale_pointers@@@Z 0000000180010f98 f   libucrt:cvt.obj
 0001:000100dc       ?fp_format_g@@YAHQEBNQEAD_K12H_NIQEAU__crt_locale_pointers@@@Z 00000001800110dc f   libucrt:cvt.obj
 0001:00010210       ?fp_format_nan_or_infinity@@YAHW4__acrt_fp_class@@_NPEAD_K1@Z 0000000180011210 f   libucrt:cvt.obj
 0001:0001073c       ?<lambda_invoker_cdecl>@<lambda_c2303d2482d7c3675ea2e24c4cfb6115>@@CAHPEBX0@Z 000000018001173c f   libucrt:argv_wildcards.obj
 0001:00010750       ??$common_expand_argv_wildcards@D@@YAHQEAPEADQEAPEAPEAD@Z 0000000180011750 f   libucrt:argv_wildcards.obj
 0001:0001095c       ??$copy_and_add_argument_to_buffer@D@@YAHQEBD0_KAEAV?$argument_list@D@?A0x5f5c8891@@@Z 000000018001195c f   libucrt:argv_wildcards.obj
 0001:00010af8       ??$expand_argument_wildcards@D@@YAHQEAD0AEAV?$argument_list@D@?A0x5f5c8891@@@Z 0000000180011af8 f   libucrt:argv_wildcards.obj
 0001:00010d28       ??$?RV<lambda_efdfa57d1f175319df784efa44bb7b81>@@AEAV<lambda_5f0a4c1567f8adc6734073e5d1e1b35c>@@V<lambda_2e8a7d3640ea6ccb4c2413664c2db6fd>@@@?$__crt_seh_guarded_call@X@@QEAAX$$QEAV<lambda_efdfa57d1f175319df784efa44bb7b81>@@AEAV<lambda_5f0a4c1567f8adc6734073e5d1e1b35c>@@$$QEAV<lambda_2e8a7d3640ea6ccb4c2413664c2db6fd>@@@Z 0000000180011d28 f   libucrt:mbctype.obj
 0001:00010ee4       ?getSystemCP@@YAHH@Z       0000000180011ee4 f   libucrt:mbctype.obj
 0001:00010f64       ?setSBCS@@YAXPEAU__crt_multibyte_data@@@Z 0000000180011f64 f   libucrt:mbctype.obj
 0001:00010ff4       ?setSBUpLow@@YAXPEAU__crt_multibyte_data@@@Z 0000000180011ff4 f   libucrt:mbctype.obj
 0001:000111d8       ?setmbcp_internal@@YAHH_NQEAU__acrt_ptd@@QEAPEAU__crt_multibyte_data@@@Z 00000001800121d8 f   libucrt:mbctype.obj
 0001:0001139c       ?update_thread_multibyte_data_internal@@YAPEAU__crt_multibyte_data@@QEAU__acrt_ptd@@QEAPEAU1@@Z 000000018001239c f   libucrt:mbctype.obj
 0001:00011a8c       ??$?RV<lambda_450d765d439847d4c735a33c368b5fc0>@@AEAV<lambda_44731a7d0e6d81c3e6aa82d741081786>@@V<lambda_601a2a7da3b7a96e9554ac7215c4b07c>@@@?$__crt_seh_guarded_call@P6AXH@Z@@QEAAP6AXH@Z$$QEAV<lambda_450d765d439847d4c735a33c368b5fc0>@@AEAV<lambda_44731a7d0e6d81c3e6aa82d741081786>@@$$QEAV<lambda_601a2a7da3b7a96e9554ac7215c4b07c>@@@Z 0000000180012a8c f   libucrt:signal.obj
 0001:00012440       ?free_crt_array_internal@@YAXQEAPEBX_K@Z 0000000180013440 f   libucrt:inittime.obj
 0001:0001274c       ?GetTableIndexFromLocaleName@@YAHPEB_W@Z 000000018001374c f   libucrt:lcidtoname_downlevel.obj
 0001:00012950       ??$?RV<lambda_a37b2b86f63e897a80ea819b0eb08c01>@@AEAV<lambda_38ce7e780aa69e748d6df282ebc68efe>@@V<lambda_99fb1378e971ab6e7edea83e3a7a83a2>@@@?$__crt_seh_guarded_call@H@@QEAAH$$QEAV<lambda_a37b2b86f63e897a80ea819b0eb08c01>@@AEAV<lambda_38ce7e780aa69e748d6df282ebc68efe>@@$$QEAV<lambda_99fb1378e971ab6e7edea83e3a7a83a2>@@@Z 0000000180013950 f   libucrt:commit.obj
 0001:00012a70       ?write_double_translated_ansi_nolock@@YA?AUwrite_result@?A0x17268360@@HQEBDI@Z 0000000180013a70 f   libucrt:write.obj
 0001:00012c88       ?write_text_ansi_nolock@@YA?AUwrite_result@?A0x17268360@@HQEBDI@Z 0000000180013c88 f   libucrt:write.obj
 0001:00012d8c       ?write_text_utf16le_nolock@@YA?AUwrite_result@?A0x17268360@@HQEBDI@Z 0000000180013d8c f   libucrt:write.obj
 0001:00012ea8       ?write_text_utf8_nolock@@YA?AUwrite_result@?A0x17268360@@HQEBDI@Z 0000000180013ea8 f   libucrt:write.obj
 0001:000150f8       memcpy_s                   00000001800160f8 f   libucrt:cfout.obj
 0001:00015180       ??$write_buffer_nolock@D@@YA_NDV__crt_stdio_stream@@@Z 0000000180016180 f   libucrt:_flsbuf.obj
 0001:00015848       fallbackMethod             0000000180016848 f   libucrt:strpbrk.obj
 0001:00015c14       $LN78                      0000000180016c14     libucrt:strpbrk.obj
 0001:00015c50       $LN77                      0000000180016c50     libucrt:strpbrk.obj
 0001:00015c90       $LN76                      0000000180016c90     libucrt:strpbrk.obj
 0001:00016118       ?_mbstowcs_l_helper@@YA_KPEA_WPEBD_KPEAU__crt_locale_pointers@@@Z 0000000180017118 f   libucrt:mbstowcs.obj
 0001:00016340       ?initialize_multibyte@@YAHXZ 0000000180017340 f   libucrt:multibyte_initializer.obj
 0001:00016358       ??$?RV<lambda_751a882b2c74d4b022dec766aa51a29a>@@AEAV<lambda_628dfdc04ba53c8bfc02c9951375f3f5>@@V<lambda_f6c7be5f7998530c34de24c7437d6b54>@@@?$__crt_seh_guarded_call@H@@QEAAH$$QEAV<lambda_751a882b2c74d4b022dec766aa51a29a>@@AEAV<lambda_628dfdc04ba53c8bfc02c9951375f3f5>@@$$QEAV<lambda_f6c7be5f7998530c34de24c7437d6b54>@@@Z 0000000180017358 f   libucrt:close.obj
 0001:00016548       ??$common_lseek@_J@@YA_JH_JH@Z 0000000180017548 f   libucrt:lseek.obj
 0001:00016638       ??$common_lseek_nolock@_J@@YA_JH_JH@Z 0000000180017638 f   libucrt:lseek.obj
 0001:00016a90       $$000000                   0000000180017a90     libucrt:log10.obj
 0001:000170a4       ?_wcstombs_l_helper@@YA_KPEADPEB_W_KPEAU__crt_locale_pointers@@@Z 00000001800180a4 f   libucrt:wcstombs.obj
 0001:000178d8       _call_matherr              00000001800188d8 f   libucrt:libm_error.obj
 0001:00017940       _exception_enabled         0000000180018940 f   libucrt:libm_error.obj
 0001:00017bd0       _log_special_common        0000000180018bd0 f   libucrt:log_special.obj
 0001:00017d90       $$000000                   0000000180018d90     libucrt:fpsr.obj
 0001:000184f0       $$000000                   00000001800194f0     LIBCMT:_chkstk_.obj
 0001:000187b0       $$000000                   00000001800197b0     libvcruntime:memcmp.obj
 0001:00018890       $$000000                   0000000180019890     libvcruntime:memchr.obj
 0001:00018910       $$000000                   0000000180019910     LIBCMT:_guard_dispatch_.obj
 0001:00018930       __scrt_is_nonwritable_in_current_image$filt$0 0000000180019930 f   LIBCMT:utility.obj
 0001:00018948       ?fin$0@?0??dllmain_crt_process_attach@@YAHQEAUHINSTANCE__@@QEAX@Z@4HA 0000000180019948 f   LIBCMT:dll_dllmain.obj
 0001:0001895f       ?fin$0@?0??dllmain_crt_process_detach@@YAH_N@Z@4HA 000000018001995f f   LIBCMT:dll_dllmain.obj
 0001:0001897b       ?filt$0@?0??dllmain_dispatch@@YAHQEAUHINSTANCE__@@KQEAX@Z@4HA 000000018001997b f   LIBCMT:dll_dllmain.obj
 0001:000189b1       _CallSETranslator$filt$0   00000001800199b1 f   libvcruntime:risctrnsctrl.obj
 0001:00018a42       __CxxCallCatchBlock$filt$0 0000000180019a42 f   libvcruntime:frame.obj
 0001:00018a67       __CxxCallCatchBlock$fin$1  0000000180019a67 f   libvcruntime:frame.obj
 0001:00018adf       __FrameUnwindToState$filt$0 0000000180019adf f   libvcruntime:frame.obj
 0001:00018af5       __FrameUnwindToState$fin$1 0000000180019af5 f   libvcruntime:frame.obj
 0001:00018b18       __DestructExceptionObject$filt$0 0000000180019b18 f   libvcruntime:ehhelpers.obj
 0001:00018b30       ?fin$0@?0???$?RV<lambda_efdfa57d1f175319df784efa44bb7b81>@@AEAV<lambda_5f0a4c1567f8adc6734073e5d1e1b35c>@@V<lambda_2e8a7d3640ea6ccb4c2413664c2db6fd>@@@?$__crt_seh_guarded_call@X@@QEAAX$$QEAV<lambda_efdfa57d1f175319df784efa44bb7b81>@@AEAV<lambda_5f0a4c1567f8adc6734073e5d1e1b35c>@@$$QEAV<lambda_2e8a7d3640ea6ccb4c2413664c2db6fd>@@@Z@4HA 0000000180019b30 f   libucrt:mbctype.obj
 0001:00018b30       ?fin$0@?0???$?RV<lambda_0ae27a3a962d80f24befdcbee591983d>@@AEAV<lambda_8d0ee55de4b1038c4002e0adecdf1839>@@V<lambda_dc504788e8f1664fe9b84e20bfb512f2>@@@?$__crt_seh_guarded_call@X@@QEAAX$$QEAV<lambda_0ae27a3a962d80f24befdcbee591983d>@@AEAV<lambda_8d0ee55de4b1038c4002e0adecdf1839>@@$$QEAV<lambda_dc504788e8f1664fe9b84e20bfb512f2>@@@Z@4HA 0000000180019b30 f   libucrt:per_thread_data.obj
 0001:00018b30       ?fin$0@?0???$?RV<lambda_f2e299630e499de9f9a165e60fcd3db5>@@AEAV<lambda_2ae9d31cdba2644fcbeaf08da7c24588>@@V<lambda_40d01ff24d0e7b3814fdbdcee8eab3c7>@@@?$__crt_seh_guarded_call@X@@QEAAX$$QEAV<lambda_f2e299630e499de9f9a165e60fcd3db5>@@AEAV<lambda_2ae9d31cdba2644fcbeaf08da7c24588>@@$$QEAV<lambda_40d01ff24d0e7b3814fdbdcee8eab3c7>@@@Z@4HA 0000000180019b30 f   libucrt:per_thread_data.obj
 0001:00018b30       ?fin$0@?0???$?RV<lambda_aa87e3671a710a21b5dc78c0bdf72e11>@@AEAV<lambda_92619d2358a28f41a33ba319515a20b9>@@V<lambda_6992ecaafeb10aed2b74cb1fae11a551>@@@?$__crt_seh_guarded_call@X@@QEAAX$$QEAV<lambda_aa87e3671a710a21b5dc78c0bdf72e11>@@AEAV<lambda_92619d2358a28f41a33ba319515a20b9>@@$$QEAV<lambda_6992ecaafeb10aed2b74cb1fae11a551>@@@Z@4HA 0000000180019b30 f   libucrt:per_thread_data.obj
 0001:00018b30       ?fin$0@?0???$?RV<lambda_2d41944a1d46af3157314b8a01080d33>@@AEAV<lambda_8f455de75cd7d7f24b4096f044d8b9e6>@@V<lambda_aa500f224e6afead328df44964fe2772>@@@?$__crt_seh_guarded_call@X@@QEAAX$$QEAV<lambda_2d41944a1d46af3157314b8a01080d33>@@AEAV<lambda_8f455de75cd7d7f24b4096f044d8b9e6>@@$$QEAV<lambda_aa500f224e6afead328df44964fe2772>@@@Z@4HA 0000000180019b30 f   libucrt:per_thread_data.obj
 0001:00018b30       ?fin$0@?0???$?RV<lambda_8369fcb7c4df1e85de37618bd2b85f07>@@AEAV<lambda_a10e4b102d4a2c3aac6f4f48bbdf488f>@@V<lambda_5b7707bd6d7a0c4713179f36c7fd995d>@@@?$__crt_seh_guarded_call@H@@QEAAH$$QEAV<lambda_8369fcb7c4df1e85de37618bd2b85f07>@@AEAV<lambda_a10e4b102d4a2c3aac6f4f48bbdf488f>@@$$QEAV<lambda_5b7707bd6d7a0c4713179f36c7fd995d>@@@Z@4HA 0000000180019b30 f   libucrt:onexit.obj
 0001:00018b30       ?fin$0@?0???$?RV<lambda_d80eeec6fff315bfe5c115232f3240e3>@@AEAV<lambda_6e4b09c48022b2350581041d5f6b0c4c>@@V<lambda_2358e3775559c9db80273638284d5e45>@@@?$__crt_seh_guarded_call@X@@QEAAX$$QEAV<lambda_d80eeec6fff315bfe5c115232f3240e3>@@AEAV<lambda_6e4b09c48022b2350581041d5f6b0c4c>@@$$QEAV<lambda_2358e3775559c9db80273638284d5e45>@@@Z@4HA 0000000180019b30 f   libucrt:exit.obj
 0001:00018b30       ?fin$0@?0???$?RV<lambda_7777bce6b2f8c936911f934f8298dc43>@@AEAV<lambda_f03950bc5685219e0bcd2087efbe011e>@@V<lambda_3883c3dff614d5e0c5f61bb1ac94921c>@@@?$__crt_seh_guarded_call@H@@QEAAH$$QEAV<lambda_7777bce6b2f8c936911f934f8298dc43>@@AEAV<lambda_f03950bc5685219e0bcd2087efbe011e>@@$$QEAV<lambda_3883c3dff614d5e0c5f61bb1ac94921c>@@@Z@4HA 0000000180019b30 f   libucrt:onexit.obj
 0001:00018b30       ?fin$0@?0???$?RV<lambda_450d765d439847d4c735a33c368b5fc0>@@AEAV<lambda_44731a7d0e6d81c3e6aa82d741081786>@@V<lambda_601a2a7da3b7a96e9554ac7215c4b07c>@@@?$__crt_seh_guarded_call@P6AXH@Z@@QEAAP6AXH@Z$$QEAV<lambda_450d765d439847d4c735a33c368b5fc0>@@AEAV<lambda_44731a7d0e6d81c3e6aa82d741081786>@@$$QEAV<lambda_601a2a7da3b7a96e9554ac7215c4b07c>@@@Z@4HA 0000000180019b30 f   libucrt:signal.obj
 0001:00018b4a       ?filt$0@?0???R<lambda_6e4b09c48022b2350581041d5f6b0c4c>@@QEBA@XZ@4HA 0000000180019b4a f   libucrt:exit.obj
 0001:00018b65       ?fin$0@?0???$?RV<lambda_842d9ff0dc9ef11c61343bbaebe7f885>@@AEAV<lambda_c5860995281e5c4ce005b3de8f5874ee>@@V<lambda_d90129c13df834fdcbf8d2b88dafcf2d>@@@?$__crt_seh_guarded_call@X@@QEAAX$$QEAV<lambda_842d9ff0dc9ef11c61343bbaebe7f885>@@AEAV<lambda_c5860995281e5c4ce005b3de8f5874ee>@@$$QEAV<lambda_d90129c13df834fdcbf8d2b88dafcf2d>@@@Z@4HA 0000000180019b65 f   libucrt:fflush.obj
 0001:00018b65       ?fin$0@?0???$?RV<lambda_a62c933ada0517137acf5807a1eeac1f>@@AEAV<lambda_a31071773b9a94e445cbd5d04ef99106>@@V<lambda_56065050dbf3ada7e59a83db45153de3>@@@?$__crt_seh_guarded_call@H@@QEAAH$$QEAV<lambda_a62c933ada0517137acf5807a1eeac1f>@@AEAV<lambda_a31071773b9a94e445cbd5d04ef99106>@@$$QEAV<lambda_56065050dbf3ada7e59a83db45153de3>@@@Z@4HA 0000000180019b65 f   libucrt:output.obj
 0001:00018b80       _query_new_handler$fin$0   0000000180019b80 f   libucrt:new_handler.obj
 0001:00018b96       ?fin$0@?0???$?RV<lambda_410d79af7f07d98d83a3f525b3859a53>@@AEAV<lambda_3e16ef9562a7dcce91392c22ab16ea36>@@V<lambda_38119f0e861e05405d8a144b9b982f0a>@@@?$__crt_seh_guarded_call@X@@QEAAX$$QEAV<lambda_410d79af7f07d98d83a3f525b3859a53>@@AEAV<lambda_3e16ef9562a7dcce91392c22ab16ea36>@@$$QEAV<lambda_38119f0e861e05405d8a144b9b982f0a>@@@Z@4HA 0000000180019b96 f   libucrt:wsetlocale.obj
 0001:00018bb0       _fcloseall$fin$0           0000000180019bb0 f   libucrt:closeall.obj
 0001:00018bc9       ?fin$0@?0???$?RV<lambda_886d6c58226a84441f68b9f2b8217b83>@@AEAV<lambda_ab61a845afdef5b7c387490eaf3616ee>@@V<lambda_f7f22ab5edc0698d5f6905b0d3f44752>@@@?$__crt_seh_guarded_call@X@@QEAAX$$QEAV<lambda_886d6c58226a84441f68b9f2b8217b83>@@AEAV<lambda_ab61a845afdef5b7c387490eaf3616ee>@@$$QEAV<lambda_f7f22ab5edc0698d5f6905b0d3f44752>@@@Z@4HA 0000000180019bc9 f   libucrt:fflush.obj
 0001:00018be6       __acrt_lowio_ensure_fh_exists$fin$0 0000000180019be6 f   libucrt:osfinfo.obj
 0001:00018be6       __acrt_initialize_lowio$fin$0 0000000180019be6 f   libucrt:ioinit.obj
 0001:00018bff       ?fin$0@?0??update_thread_multibyte_data_internal@@YAPEAU__crt_multibyte_data@@QEAU__acrt_ptd@@QEAPEAU1@@Z@4HA 0000000180019bff f   libucrt:mbctype.obj
 0001:00018c18       raise$fin$0                0000000180019c18 f   libucrt:signal.obj
 0001:00018c39       __acrt_update_thread_locale_data$fin$0 0000000180019c39 f   libucrt:locale_refcounting.obj
 0001:00018c52       fclose$fin$0               0000000180019c52 f   libucrt:fclose.obj
 0001:00018c6a       ?fin$0@?0???$?RV<lambda_a37b2b86f63e897a80ea819b0eb08c01>@@AEAV<lambda_38ce7e780aa69e748d6df282ebc68efe>@@V<lambda_99fb1378e971ab6e7edea83e3a7a83a2>@@@?$__crt_seh_guarded_call@H@@QEAAH$$QEAV<lambda_a37b2b86f63e897a80ea819b0eb08c01>@@AEAV<lambda_38ce7e780aa69e748d6df282ebc68efe>@@$$QEAV<lambda_99fb1378e971ab6e7edea83e3a7a83a2>@@@Z@4HA 0000000180019c6a f   libucrt:commit.obj
 0001:00018c6a       ?fin$0@?0???$?RV<lambda_751a882b2c74d4b022dec766aa51a29a>@@AEAV<lambda_628dfdc04ba53c8bfc02c9951375f3f5>@@V<lambda_f6c7be5f7998530c34de24c7437d6b54>@@@?$__crt_seh_guarded_call@H@@QEAAH$$QEAV<lambda_751a882b2c74d4b022dec766aa51a29a>@@AEAV<lambda_628dfdc04ba53c8bfc02c9951375f3f5>@@$$QEAV<lambda_f6c7be5f7998530c34de24c7437d6b54>@@@Z@4HA 0000000180019c6a f   libucrt:close.obj
 0001:00018c84       ?fin$0@?0???$common_lseek@_J@@YA_JH_JH@Z@4HA 0000000180019c84 f   libucrt:lseek.obj
 0001:00018c84       _write$fin$0               0000000180019c84 f   libucrt:write.obj
 0001:00018c9b       ?dtor$0@?0??_wcstombs_l_helper@@YA_KPEADPEB_W_KPEAU__crt_locale_pointers@@@Z@4HA 0000000180019c9b f   libucrt:wcstombs.obj
 0001:00018ca7       _ctrlfp$filt$0             0000000180019ca7 f   libucrt:fpctrl.obj
 0001:00018ce0       _IsNonwritableInCurrentImage$filt$0 0000000180019ce0 f   LIBCMT:pesect.obj
 0001:00018d00       ??__FdeviceMap@@YAXXZ      0000000180019d00 f   deviceList.obj
 0001:00018d6c       ??__F_AtlBaseModule@ATL@@YAXXZ 0000000180019d6c f   atls:atlbase.obj
 0002:00000448       ?_AtlBaseModule$initializer$@ATL@@3P6AXXZEA 000000018001a448     atls:atlbase.obj
 0002:00000458       ?deviceMap$initializer$@@3P6AXXZEA 000000018001a458     deviceList.obj
 0002:00000588       GS_ExceptionPointers       000000018001a588     LIBCMT:gs_report.obj
 0002:00000670       ?ExceptionTemplate@?1??_CxxThrowException@@9@4UEHExceptionRecord@@B 000000018001a670     libvcruntime:throw.obj
 0002:000006b0       ?module_names@?A0x89697e75@@3QBQEB_WB 000000018001a6b0     libvcruntime:winapi_downlevel.obj
 0002:00000780       ?candidate_modules@?1??try_get_FlsAlloc@@YAP6AKP6AXPEAX@Z@ZXZ@4QBW4module_id@?A0x89697e75@@B 000000018001a780     libvcruntime:winapi_downlevel.obj
 0002:00000798       ?candidate_modules@?1??try_get_FlsFree@@YAP6AHK@ZXZ@4QBW4module_id@?A0x89697e75@@B 000000018001a798     libvcruntime:winapi_downlevel.obj
 0002:000007a8       ?candidate_modules@?1??try_get_FlsGetValue@@YAP6APEAXK@ZXZ@4QBW4module_id@?A0x89697e75@@B 000000018001a7a8     libvcruntime:winapi_downlevel.obj
 0002:000007c0       ?candidate_modules@?1??try_get_FlsSetValue@@YAP6AHKPEAX@ZXZ@4QBW4module_id@?A0x89697e75@@B 000000018001a7c0     libvcruntime:winapi_downlevel.obj
 0002:000007d8       ?candidate_modules@?1??try_get_InitializeCriticalSectionEx@@YAP6AHPEAU_RTL_CRITICAL_SECTION@@KK@ZXZ@4QBW4module_id@?A0x89697e75@@B 000000018001a7d8     libvcruntime:winapi_downlevel.obj
 0002:00000800       ?tokenTable@@3QBQEBDB      000000018001a800     libvcruntime:undname.obj
 0002:00000878       ?rttiTable@@3QBQEBDB       000000018001a878     libvcruntime:undname.obj
 0002:000008a0       ?nameTable@@3QBQEBDB       000000018001a8a0     libvcruntime:undname.obj
 0002:000011b0       ?ExceptionTemplate@?1??_UnwindNestedFrames@@9@4U_EXCEPTION_RECORD@@B 000000018001b1b0     libvcruntime:risctrnsctrl.obj
 0002:00001380       ?errtable@@3QBUerrentry@?A0x31fdb9ec@@B 000000018001b380     libucrt:errno.obj
 0002:000015c0       __acrt_initializers        000000018001b5c0     libucrt:initialization.obj
 0002:00002340       ?module_names@?A0x391cf84c@@3QBQEB_WB 000000018001c340     libucrt:winapi_thunks.obj
 0002:00002838       ?candidate_modules@?1??try_get_FlsAlloc@@YAP6AKP6AXPEAX@Z@ZXZ@4QBW4module_id@?A0x391cf84c@@B 000000018001c838     libucrt:winapi_thunks.obj
 0002:00002840       ?candidate_modules@?1??try_get_FlsFree@@YAP6AHK@ZXZ@4QBW4module_id@?A0x391cf84c@@B 000000018001c840     libucrt:winapi_thunks.obj
 0002:00002848       ?candidate_modules@?1??try_get_FlsGetValue@@YAP6APEAXK@ZXZ@4QBW4module_id@?A0x391cf84c@@B 000000018001c848     libucrt:winapi_thunks.obj
 0002:00002850       ?candidate_modules@?1??try_get_FlsSetValue@@YAP6AHKPEAX@ZXZ@4QBW4module_id@?A0x391cf84c@@B 000000018001c850     libucrt:winapi_thunks.obj
 0002:00002858       ?candidate_modules@?1??try_get_InitializeCriticalSectionEx@@YAP6AHPEAU_RTL_CRITICAL_SECTION@@KK@ZXZ@4QBW4module_id@?A0x391cf84c@@B 000000018001c858     libucrt:winapi_thunks.obj
 0002:00002860       ?candidate_modules@?1??try_get_LCMapStringEx@@YAP6AHPEB_WK0HPEA_WHPEAU_nlsversioninfo@@PEAX_J@ZXZ@4QBW4module_id@?A0x391cf84c@@B 000000018001c860     libucrt:winapi_thunks.obj
 0002:00002878       ?candidate_modules@?1??try_get_LocaleNameToLCID@@YAP6AKPEB_WK@ZXZ@4QBW4module_id@?A0x391cf84c@@B 000000018001c878     libucrt:winapi_thunks.obj
 0002:00002894       ?candidate_modules@?1??try_get_AppPolicyGetProcessTerminationMethod@@YAP6AJPEAXPEAW4AppPolicyProcessTerminationMethod@@@ZXZ@4QBW4module_id@?A0x391cf84c@@B 000000018001c894     libucrt:winapi_thunks.obj
 0002:00002918       ?_mb_locale_names@@3QBQEB_WB 000000018001c918     libucrt:mbctype.obj
 0002:00002980       ?LcidToLocaleNameTable@?A0x881e4c05@@3QBULcidToLocaleName@1@B 000000018001c980     libucrt:lcidtoname_downlevel.obj
 0002:000043e0       ?LocaleNameToIndexTable@?A0x881e4c05@@3QBULocaleNameIndex@1@B 000000018001e3e0     libucrt:lcidtoname_downlevel.obj
 0002:00006680       __real_ninf                0000000180020680     libucrt:log10.obj
 0002:00006690       __real_inf                 0000000180020690     libucrt:log10.obj
 0002:000066a0       __real_neg_qnan            00000001800206a0     libucrt:log10.obj
 0002:000066b0       __real_qnanbit             00000001800206b0     libucrt:log10.obj
 0002:000066c0       __int_1023                 00000001800206c0     libucrt:log10.obj
 0002:000066d0       __mask_001                 00000001800206d0     libucrt:log10.obj
 0002:000066e0       __mask_mant                00000001800206e0     libucrt:log10.obj
 0002:000066f0       __mask_mant_top8           00000001800206f0     libucrt:log10.obj
 0002:00006700       __mask_mant9               0000000180020700     libucrt:log10.obj
 0002:00006710       __real_log10_e             0000000180020710     libucrt:log10.obj
 0002:00006720       __real_log10_e_lead        0000000180020720     libucrt:log10.obj
 0002:00006730       __real_log10_e_tail        0000000180020730     libucrt:log10.obj
 0002:00006740       __real_log10_2_lead        0000000180020740     libucrt:log10.obj
 0002:00006750       __real_log10_2_tail        0000000180020750     libucrt:log10.obj
 0002:00006760       __real_two                 0000000180020760     libucrt:log10.obj
 0002:00006770       __real_one                 0000000180020770     libucrt:log10.obj
 0002:00006780       __real_half                0000000180020780     libucrt:log10.obj
 0002:00006790       __mask_100                 0000000180020790     libucrt:log10.obj
 0002:000067a0       __real_1_over_512          00000001800207a0     libucrt:log10.obj
 0002:000067b0       __real_1_over_2            00000001800207b0     libucrt:log10.obj
 0002:000067c0       __real_1_over_3            00000001800207c0     libucrt:log10.obj
 0002:000067d0       __real_1_over_4            00000001800207d0     libucrt:log10.obj
 0002:000067e0       __real_1_over_5            00000001800207e0     libucrt:log10.obj
 0002:000067f0       __real_1_over_6            00000001800207f0     libucrt:log10.obj
 0002:00006800       __real_neg_1023            0000000180020800     libucrt:log10.obj
 0002:00006810       __mask_2045                0000000180020810     libucrt:log10.obj
 0002:00006820       __real_threshold           0000000180020820     libucrt:log10.obj
 0002:00006830       __real_near_one_lt         0000000180020830     libucrt:log10.obj
 0002:00006840       __real_near_one_gt         0000000180020840     libucrt:log10.obj
 0002:00006850       __real_min_norm            0000000180020850     libucrt:log10.obj
 0002:00006860       __real_notsign             0000000180020860     libucrt:log10.obj
 0002:00006870       __real_ca1                 0000000180020870     libucrt:log10.obj
 0002:00006880       __real_ca2                 0000000180020880     libucrt:log10.obj
 0002:00006890       __real_ca3                 0000000180020890     libucrt:log10.obj
 0002:000068a0       __real_ca4                 00000001800208a0     libucrt:log10.obj
 0002:000068b0       __mask_lower               00000001800208b0     libucrt:log10.obj
 0002:000068c0       __flag_x_zero              00000001800208c0     libucrt:log10.obj
 0002:000068c4       __flag_x_neg               00000001800208c4     libucrt:log10.obj
 0002:000068c8       __flag_x_nan               00000001800208c8     libucrt:log10.obj
 0002:000068d0       $cppxdata$?_wcstombs_l_helper@@YA_KPEADPEB_W_KPEAU__crt_locale_pointers@@@Z 00000001800208d0     libucrt:wcstombs.obj
 0002:00008150       __real@433fffffffffffff    0000000180022150     libucrt:fpsr.obj
 0002:00008158       __real@c33fffffffffffff    0000000180022158     libucrt:fpsr.obj
 0002:00008e98       $unwind$?FunctionCallbackWrapper@imp@Nan@@YAXAEBV?$FunctionCallbackInfo@VValue@v8@@@v8@@@Z 0000000180022e98     detection.obj
 0002:00008eac       $unwind$?ThrowTypeError@Nan@@YAXPEBD@Z 0000000180022eac     detection.obj
 0002:00008eb4       $unwind$?Call@Callback@Nan@@QEBA?AV?$Local@VValue@v8@@@v8@@HQEAV34@@Z 0000000180022eb4     detection.obj
 0002:00008ee0       $unwind$__acrt_AppPolicyGetProcessTerminationMethodInternal 0000000180022ee0     libucrt:winapi_thunks.obj
 0002:00008ee0       $unwind$?Reallocate@?$CSimpleStringT@D$0A@@ATL@@AEAAXH@Z 0000000180022ee0     detection_win.obj
 0002:00008ee0       $unwind$__std_exception_destroy 0000000180022ee0     libvcruntime:std_exception.obj
 0002:00008ee0       $unwind$?exit_or_terminate_process@@YAXI@Z 0000000180022ee0     libucrt:exit.obj
 0002:00008ee0       $unwind$?Reallocate@CAtlStringMgr@ATL@@UEAAPEAUCStringData@2@PEAU32@HH@Z 0000000180022ee0     detection_win.obj
 0002:00008ee0       $unwind$??_GCAtlStringMgr@ATL@@UEAAPEAXI@Z 0000000180022ee0     detection_win.obj
 0002:00008ee0       $unwind$strcpy_s           0000000180022ee0     libucrt:strcpy_s.obj
 0002:00008ee0       $unwind$?internal_islower_l@@YA_NHQEAU__crt_locale_pointers@@@Z 0000000180022ee0     libucrt:tolower_toupper.obj
 0002:00008ee0       $unwind$?state_case_normal@?$output_processor@DV?$stream_output_adapter@D@__crt_stdio_output@@V?$standard_base@DV?$stream_output_adapter@D@__crt_stdio_output@@@2@@__crt_stdio_output@@AEAA_NXZ 0000000180022ee0     libucrt:output.obj
 0002:00008ee0       $unwind$?type_case_s@?$output_processor@DV?$string_output_adapter@D@__crt_stdio_output@@V?$format_validation_base@DV?$string_output_adapter@D@__crt_stdio_output@@@2@@__crt_stdio_output@@AEAA_NXZ 0000000180022ee0     libucrt:output.obj
 0002:00008ee0       $unwind$_clearfp           0000000180022ee0     libucrt:ieee.obj
 0002:00008ee0       $unwind$?internal_isupper_l@@YA_NHQEAU__crt_locale_pointers@@@Z 0000000180022ee0     libucrt:tolower_toupper.obj
 0002:00008ee0       $unwind$??1CAtlBaseModule@ATL@@QEAA@XZ 0000000180022ee0     atls:atlbase.obj
 0002:00008ee0       $unwind$??2@YAPEAX_K@Z     0000000180022ee0     LIBCMT:new_scalar.obj
 0002:00008ee0       $unwind$_IsExceptionObjectToBeDestroyed 0000000180022ee0     libvcruntime:ehhelpers.obj
 0002:00008ee0       $unwind$__raise_securityfailure 0000000180022ee0     LIBCMT:gs_report.obj
 0002:00008ee0       $unwind$?__GetUnwindTryBlock@@YAHPEA_KPEAU_xDISPATCHER_CONTEXT@@PEBU_s_FuncInfo@@@Z 0000000180022ee0     libvcruntime:riscehstate.obj
 0002:00008ee0       $unwind$_CreateFrameInfo   0000000180022ee0     libvcruntime:risctrnsctrl.obj
 0002:00008ee0       $unwind$__acrt_update_locale_info 0000000180022ee0     libucrt:locale_update.obj
 0002:00008ee0       $unwind$__acrt_FlsGetValue 0000000180022ee0     libucrt:winapi_thunks.obj
 0002:00008ee0       $unwind$??0exception@std@@QEAA@AEBV01@@Z 0000000180022ee0     libcpmt:xthrow.obj
 0002:00008ee0       $unwind$??0out_of_range@std@@QEAA@AEBV01@@Z 0000000180022ee0     libcpmt:xthrow.obj
 0002:00008ee0       $unwind$__vcrt_FlsGetValue 0000000180022ee0     libvcruntime:winapi_downlevel.obj
 0002:00008ee0       $unwind$?__StateFromIp@@YAHPEBU_s_FuncInfo@@PEAU_xDISPATCHER_CONTEXT@@_K@Z 0000000180022ee0     libvcruntime:riscehstate.obj
 0002:00008ee0       $unwind$?try_cor_exit_process@@YAXI@Z 0000000180022ee0     libucrt:exit.obj
 0002:00008ee0       $unwind$_onexit            0000000180022ee0     LIBCMT:utility.obj
 0002:00008ee0       $unwind$_mbsinc            0000000180022ee0     libucrt:mbsinc.obj
 0002:00008ee0       $unwind$??0bad_exception@std@@QEAA@AEBV01@@Z 0000000180022ee0     libvcruntime:frame.obj
 0002:00008ee0       $unwind$_fflush_nolock     0000000180022ee0     libucrt:fflush.obj
 0002:00008ee0       $unwind$__acrt_FlsFree     0000000180022ee0     libucrt:winapi_thunks.obj
 0002:00008ee0       $unwind$__vcrt_freeptd     0000000180022ee0     libvcruntime:per_thread_data.obj
 0002:00008ee0       $unwind$__acrt_FlsAlloc    0000000180022ee0     libucrt:winapi_thunks.obj
 0002:00008ee0       $unwind$??_Gtype_info@@UEAAPEAXI@Z 0000000180022ee0     LIBCMT:std_type_info_static.obj
 0002:00008ee0       $unwind$__acrt_uninitialize_winapi_thunks 0000000180022ee0     libucrt:winapi_thunks.obj
 0002:00008ee0       $unwind$_SetThrowImageBase 0000000180022ee0     libvcruntime:risctrnsctrl.obj
 0002:00008ee0       $unwind$_SetImageBase      0000000180022ee0     libvcruntime:risctrnsctrl.obj
 0002:00008ee0       $unwind$__scrt_uninitialize_crt 0000000180022ee0     LIBCMT:utility.obj
 0002:00008ee0       $unwind$init               0000000180022ee0     detection.obj
 0002:00008ee0       $unwind$__acrt_getptd_head 0000000180022ee0     libucrt:per_thread_data.obj
 0002:00008ee0       $unwind$__vcrt_FlsFree     0000000180022ee0     libvcruntime:winapi_downlevel.obj
 0002:00008ee0       $unwind$__std_type_info_destroy_list 0000000180022ee0     libvcruntime:std_type_info.obj
 0002:00008ee0       $unwind$__vcrt_FlsAlloc    0000000180022ee0     libvcruntime:winapi_downlevel.obj
 0002:00008ee0       $unwind$?ExFilterRethrow@@YAHPEAU_EXCEPTION_POINTERS@@PEAUEHExceptionRecord@@PEAH@Z 0000000180022ee0     libvcruntime:frame.obj
 0002:00008ee0       $unwind$__acrt_stdio_free_buffer_nolock 0000000180022ee0     libucrt:_freebuf.obj
 0002:00008ee0       $unwind$__scrt_initialize_crt 0000000180022ee0     LIBCMT:utility.obj
 0002:00008ee0       $unwind$??0length_error@std@@QEAA@AEBV01@@Z 0000000180022ee0     libcpmt:xthrow.obj
 0002:00008ee0       $unwind$_clrfp             0000000180022ee0     libucrt:fpctrl.obj
 0002:00008ee0       $unwind$?type_case_s@?$output_processor@DV?$stream_output_adapter@D@__crt_stdio_output@@V?$standard_base@DV?$stream_output_adapter@D@__crt_stdio_output@@@2@@__crt_stdio_output@@AEAA_NXZ 0000000180022ee0     libucrt:output.obj
 0002:00008ee0       $unwind$__acrt_get_process_end_policy 0000000180022ee0     libucrt:win_policies.obj
 0002:00008ee0       $unwind$__scrt_release_startup_lock 0000000180022ee0     LIBCMT:utility.obj
 0002:00008ee0       $unwind$?_Destroy_if_node@?$_Tree@V?$_Tmap_traits@V?$basic_string@DU?$char_traits@D@std@@V?$allocator@D@2@@std@@PEAU_DeviceItem_t@@U?$less@V?$basic_string@DU?$char_traits@D@std@@V?$allocator@D@2@@std@@@2@V?$allocator@U?$pair@$$CBV?$basic_string@DU?$char_traits@D@std@@V?$allocator@D@2@@std@@PEAU_DeviceItem_t@@@std@@@2@$0A@@std@@@std@@IEAAXPEAU?$_Tree_node@U?$pair@$$CBV?$basic_string@DU?$char_traits@D@std@@V?$allocator@D@2@@std@@PEAU_DeviceItem_t@@@std@@PEAX@2@@Z 0000000180022ee0     deviceList.obj
 0002:00008ee0       $unwind$__acrt_uninitialize_locks 0000000180022ee0     libucrt:locks.obj
 0002:00008ee0       $unwind$??1ListResultItem_t@@QEAA@XZ 0000000180022ee0     detection.obj
 0002:00008ee0       $unwind$__acrt_initialize_locks 0000000180022ee0     libucrt:locks.obj
 0002:00008ee0       $unwind$_set_statfp        0000000180022ee0     libucrt:fpctrl.obj
 0002:00008ee0       $unwind$??0logic_error@std@@QEAA@AEBV01@@Z 0000000180022ee0     libcpmt:xthrow.obj
 0002:00008ee0       $unwind$?__c16rtomb_utf8@__crt_mbstring@@YA_KPEAD_SPEAU_Mbstatet@@@Z 0000000180022ee0     libucrt:c16rtomb.obj
 0002:00008ee0       $unwind$__vcrt_uninitialize_locks 0000000180022ee0     libvcruntime:locks.obj
 0002:00008ee0       $unwind$??0bad_array_new_length@std@@QEAA@AEBV01@@Z 0000000180022ee0     LIBCMT:throw_bad_alloc.obj
 0002:00008ee0       $unwind$feholdexcept       0000000180022ee0     libucrt:feholdexcept.obj
 0002:00008ee0       $unwind$__acrt_uninitialize_stdio 0000000180022ee0     libucrt:_file.obj
 0002:00008ee0       $unwind$fesetenv           0000000180022ee0     libucrt:fesetenv.obj
 0002:00008ee0       $unwind$__acrt_allocate_buffer_for_argv 0000000180022ee0     libucrt:argv_parsing.obj
 0002:00008ee0       $unwind$fegetenv           0000000180022ee0     libucrt:fegetenv.obj
 0002:00008ee0       $unwind$__vcrt_initialize_locks 0000000180022ee0     libvcruntime:locks.obj
 0002:00008ee0       $unwind$??0bad_alloc@std@@QEAA@AEBV01@@Z 0000000180022ee0     libcpmt:xthrow.obj
 0002:00008ee0       $unwind$_callnewh          0000000180022ee0     libucrt:new_handler.obj
 0002:00008ee0       $unwind$uninitialize_allocated_memory 0000000180022ee0     libucrt:initialization.obj
 0002:00008ee0       $unwind$__acrt_update_multibyte_info 0000000180022ee0     libucrt:locale_update.obj
 0002:00008ee0       $unwind$_calloc_base       0000000180022ee0     libucrt:calloc_base.obj
 0002:00008ee0       $unwind$__acrt_freeptd     0000000180022ee0     libucrt:per_thread_data.obj
 0002:00008ee0       $unwind$initialize_pointers 0000000180022ee0     libucrt:initialization.obj
 0002:00008ee0       $unwind$?state_case_normal@?$output_processor@DV?$string_output_adapter@D@__crt_stdio_output@@V?$format_validation_base@DV?$string_output_adapter@D@__crt_stdio_output@@@2@@__crt_stdio_output@@AEAA_NXZ 0000000180022ee0     libucrt:output.obj
 0002:00008ee0       $unwind$_malloc_base       0000000180022ee0     libucrt:malloc_base.obj
 0002:00008ee8       $unwind$_mbsrchr_l         0000000180022ee8     libucrt:mbsrchr.obj
 0002:00008ee8       $unwind$_mbschr_l          0000000180022ee8     libucrt:mbschr.obj
 0002:00008ee8       $unwind$?RegisterAdded@@YAXAEBV?$FunctionCallbackInfo@VValue@v8@@@Nan@@@Z 0000000180022ee8     detection.obj
 0002:00008ee8       $unwind$_mbscmp_l          0000000180022ee8     libucrt:mbscmp.obj
 0002:00008ee8       $unwind$?RegisterRemoved@@YAXAEBV?$FunctionCallbackInfo@VValue@v8@@@Nan@@@Z 0000000180022ee8     detection.obj
 0002:00008ee8       $unwind$?x_ismbbtype_l@@YAHPEAU__crt_locale_pointers@@IHH@Z 0000000180022ee8     libucrt:ismbbyte.obj
 0002:00008ef8       $unwind$?NotifyRemoved@@YAXPEAUListResultItem_t@@@Z 0000000180022ef8     detection.obj
 0002:00008ef8       $unwind$?NotifyAdded@@YAXPEAUListResultItem_t@@@Z 0000000180022ef8     detection.obj
 0002:00008f04       $chain$0$?NotifyAdded@@YAXPEAUListResultItem_t@@@Z 0000000180022f04     detection.obj
 0002:00008f18       $chain$1$?NotifyAdded@@YAXPEAUListResultItem_t@@@Z 0000000180022f18     detection.obj
 0002:00008f2c       $chain$2$?NotifyAdded@@YAXPEAUListResultItem_t@@@Z 0000000180022f2c     detection.obj
 0002:00008f3c       $chain$3$?NotifyAdded@@YAXPEAUListResultItem_t@@@Z 0000000180022f3c     detection.obj
 0002:00008f4c       $chain$0$?NotifyRemoved@@YAXPEAUListResultItem_t@@@Z 0000000180022f4c     detection.obj
 0002:00008f60       $chain$1$?NotifyRemoved@@YAXPEAUListResultItem_t@@@Z 0000000180022f60     detection.obj
 0002:00008f74       $chain$2$?NotifyRemoved@@YAXPEAUListResultItem_t@@@Z 0000000180022f74     detection.obj
 0002:00008f84       $chain$3$?NotifyRemoved@@YAXPEAUListResultItem_t@@@Z 0000000180022f84     detection.obj
 0002:00008f94       $unwind$?Find@@YAXAEBV?$FunctionCallbackInfo@VValue@v8@@@Nan@@@Z 0000000180022f94     detection.obj
 0002:00008fa8       $chain$0$?Find@@YAXAEBV?$FunctionCallbackInfo@VValue@v8@@@Nan@@@Z 0000000180022fa8     detection.obj
 0002:00008fbc       $chain$1$?Find@@YAXAEBV?$FunctionCallbackInfo@VValue@v8@@@Nan@@@Z 0000000180022fbc     detection.obj
 0002:00008fcc       $unwind$?EIO_AfterFind@@YAXPEAUuv_work_s@@@Z 0000000180022fcc     detection.obj
 0002:00008fe0       $chain$0$?EIO_AfterFind@@YAXPEAUuv_work_s@@@Z 0000000180022fe0     detection.obj
 0002:00008ff4       $chain$1$?EIO_AfterFind@@YAXPEAUuv_work_s@@@Z 0000000180022ff4     detection.obj
 0002:00009008       $chain$2$?EIO_AfterFind@@YAXPEAUuv_work_s@@@Z 0000000180023008     detection.obj
 0002:00009018       $chain$3$?EIO_AfterFind@@YAXPEAUuv_work_s@@@Z 0000000180023018     detection.obj
 0002:00009028       $unwind$strtol             0000000180023028     libucrt:strtox.obj
 0002:00009028       $unwind$_invalid_parameter_noinfo 0000000180023028     libucrt:invalid_parameter.obj
 0002:00009028       $unwind$_log10_special     0000000180023028     libucrt:log_special.obj
 0002:00009028       $unwind$?StartMonitoring@@YAXAEBV?$FunctionCallbackInfo@VValue@v8@@@Nan@@@Z 0000000180023028     detection.obj
 0002:00009028       $unwind$wctomb_s           0000000180023028     libucrt:wctomb.obj
 0002:00009028       $unwind$_invalid_parameter_noinfo_noreturn 0000000180023028     libucrt:invalid_parameter.obj
 0002:00009030       $chain$0$?StartMonitoring@@YAXAEBV?$FunctionCallbackInfo@VValue@v8@@@Nan@@@Z 0000000180023030     detection.obj
 0002:00009044       $chain$1$?StartMonitoring@@YAXAEBV?$FunctionCallbackInfo@VValue@v8@@@Nan@@@Z 0000000180023044     detection.obj
 0002:00009054       $unwind$__report_rangecheckfailure 0000000180023054     LIBCMT:gs_report.obj
 0002:00009054       $unwind$__acrt_DownlevelLocaleNameToLCID 0000000180023054     libucrt:lcidtoname_downlevel.obj
 0002:00009054       $unwind$?cbTerminate@@YAXPEAUuv_signal_s@@H@Z 0000000180023054     detection_win.obj
 0002:00009054       $unwind$__scrt_dllmain_after_initialize_c 0000000180023054     LIBCMT:utility.obj
 0002:00009054       $unwind$_errno             0000000180023054     libucrt:errno.obj
 0002:00009054       $unwind$__scrt_dllmain_before_initialize_c 0000000180023054     LIBCMT:utility.obj
 0002:00009054       $unwind$?Reallocate@CWin32Heap@ATL@@UEAAPEAXPEAX_K@Z 0000000180023054     detection_win.obj
 0002:00009054       $unwind$__acrt_uninitialize_critical 0000000180023054     libucrt:initialization.obj
 0002:00009054       $unwind$?initialize_multibyte@@YAHXZ 0000000180023054     libucrt:multibyte_initializer.obj
 0002:00009054       $unwind$__vcrt_initialize  0000000180023054     libvcruntime:initialization.obj
 0002:00009054       $unwind$?DetectCallback@@YA_JPEAUHWND__@@I_K_J@Z 0000000180023054     detection_win.obj
 0002:00009054       $unwind$__vcrt_uninitialize 0000000180023054     libvcruntime:initialization.obj
 0002:00009054       $unwind$__scrt_dllmain_crt_thread_attach 0000000180023054     LIBCMT:utility.obj
 0002:00009054       $unwind$__vcrt_uninitialize_critical 0000000180023054     libvcruntime:initialization.obj
 0002:00009054       $unwind$?AtlThrowImpl@ATL@@YAXJ@Z 0000000180023054     detection_win.obj
 0002:00009054       $unwind$__vcrt_thread_attach 0000000180023054     libvcruntime:initialization.obj
 0002:00009054       $unwind$_isatty            0000000180023054     libucrt:isatty.obj
 0002:00009054       $unwind$__vcrt_thread_detach 0000000180023054     libvcruntime:initialization.obj
 0002:00009054       $unwind$_GetThrowImageBase 0000000180023054     libvcruntime:risctrnsctrl.obj
 0002:00009054       $unwind$__dcrt_terminate_console_output 0000000180023054     libucrt:initcon.obj
 0002:00009054       $unwind$_fileno            0000000180023054     libucrt:fileno.obj
 0002:00009054       $unwind$__scrt_dllmain_uninitialize_c 0000000180023054     LIBCMT:utility.obj
 0002:00009054       $unwind$??$uninitialize_environment_internal@_W@@YAXAEAPEAPEA_W@Z 0000000180023054     libucrt:environment_initialization.obj
 0002:00009054       $unwind$__acrt_initialize_command_line 0000000180023054     libucrt:argv_data.obj
 0002:00009054       $unwind$__acrt_initialize_ptd 0000000180023054     libucrt:per_thread_data.obj
 0002:00009054       $unwind$__acrt_uninitialize_ptd 0000000180023054     libucrt:per_thread_data.obj
 0002:00009054       $unwind$__acrt_initialize_heap 0000000180023054     libucrt:heap_handle.obj
 0002:00009054       $unwind$_set_errno_from_matherr 0000000180023054     libucrt:fpexcept.obj
 0002:00009054       $unwind$??__EdeviceMap@@YAXXZ 0000000180023054     deviceList.obj
 0002:00009054       $unwind$__dcrt_uninitialize_environments_nolock 0000000180023054     libucrt:environment_initialization.obj
 0002:00009054       $unwind$?dllmain_crt_dispatch@@YAHQEAUHINSTANCE__@@KQEAX@Z 0000000180023054     LIBCMT:dll_dllmain.obj
 0002:00009054       $unwind$__acrt_thread_attach 0000000180023054     libucrt:initialization.obj
 0002:00009054       $unwind$?ThrowMemoryException@?$CSimpleStringT@D$0A@@ATL@@KAXXZ 0000000180023054     detection_win.obj
 0002:00009054       $unwind$abort              0000000180023054     libucrt:abort.obj
 0002:00009054       $unwind$??$_Insert_at@AEAU?$pair@$$CBV?$basic_string@DU?$char_traits@D@std@@V?$allocator@D@2@@std@@PEAU_DeviceItem_t@@@std@@PEAU?$_Tree_node@U?$pair@$$CBV?$basic_string@DU?$char_traits@D@std@@V?$allocator@D@2@@std@@PEAU_DeviceItem_t@@@std@@PEAX@2@@?$_Tree@V?$_Tmap_traits@V?$basic_string@DU?$char_traits@D@std@@V?$allocator@D@2@@std@@PEAU_DeviceItem_t@@U?$less@V?$basic_string@DU?$char_traits@D@std@@V?$allocator@D@2@@std@@@2@V?$allocator@U?$pair@$$CBV?$basic_string@DU?$char_traits@D@std@@V?$allocator@D@2@@std@@PEAU_DeviceItem_t@@@std@@@2@$0A@@std@@@std@@IEAA?AV?$_Tree_iterator@V?$_Tree_val@U?$_Tree_simple_types@U?$pair@$$CBV?$basic_string@DU?$char_traits@D@std@@V?$allocator@D@2@@std@@PEAU_DeviceItem_t@@@std@@@std@@@std@@@1@_NPEAU?$_Tree_node@U?$pair@$$CBV?$basic_string@DU?$char_traits@D@std@@V?$allocator@D@2@@std@@PEAU_DeviceItem_t@@@std@@PEAX@1@AEAU?$pair@$$CBV?$basic_string@DU?$char_traits@D@std@@V?$allocator@D@2@@std@@PEAU_DeviceItem_t@@@1@1@Z 0000000180023054     deviceList.obj
 0002:00009054       $unwind$__scrt_dllmain_crt_thread_detach 0000000180023054     LIBCMT:utility.obj
 0002:00009054       $unwind$__acrt_release_locale_ref 0000000180023054     libucrt:locale_refcounting.obj
 0002:00009054       $unwind$?state_case_size@?$output_processor@DV?$stream_output_adapter@D@__crt_stdio_output@@V?$standard_base@DV?$stream_output_adapter@D@__crt_stdio_output@@@2@@__crt_stdio_output@@AEAA_NXZ 0000000180023054     libucrt:output.obj
 0002:00009054       $unwind$?StopMonitoring@@YAXAEBV?$FunctionCallbackInfo@VValue@v8@@@Nan@@@Z 0000000180023054     detection.obj
 0002:00009054       $unwind$__vcrt_initialize_ptd 0000000180023054     libvcruntime:per_thread_data.obj
 0002:00009054       $unwind$_invoke_watson     0000000180023054     libucrt:invalid_parameter.obj
 0002:00009054       $unwind$__vcrt_uninitialize_ptd 0000000180023054     libvcruntime:per_thread_data.obj
 0002:00009054       $unwind$_statfp            0000000180023054     libucrt:fpctrl.obj
 0002:00009054       $unwind$__vcrt_getptd      0000000180023054     libvcruntime:per_thread_data.obj
 0002:00009054       $unwind$?__c32rtomb_utf8@__crt_mbstring@@YA_KPEAD_UPEAU_Mbstatet@@@Z 0000000180023054     libucrt:c32rtomb.obj
 0002:00009054       $unwind$?cbWork@@YAXPEAUuv_work_s@@@Z 0000000180023054     detection_win.obj
 0002:00009054       $unwind$__scrt_acquire_startup_lock 0000000180023054     LIBCMT:utility.obj
 0002:00009054       $unwind$__scrt_dllmain_uninitialize_critical 0000000180023054     LIBCMT:utility.obj
 0002:00009054       $unwind$__acrt_update_thread_multibyte_data 0000000180023054     libucrt:mbctype.obj
 0002:00009054       $unwind$__vcrt_freefls     0000000180023054     libvcruntime:per_thread_data.obj
 0002:00009054       $unwind$??$uninitialize_environment_internal@D@@YAXAEAPEAPEAD@Z 0000000180023054     libucrt:environment_initialization.obj
 0002:00009054       $unwind$__scrt_initialize_default_local_stdio_options 0000000180023054     LIBCMT:default_local_stdio_options.obj
 0002:00009054       $unwind$__acrt_uninitialize 0000000180023054     libucrt:initialization.obj
 0002:00009054       $unwind$?_Xran@?$_String_val@U?$_Simple_types@D@std@@@std@@SAXXZ 0000000180023054     detection_win.obj
 0002:00009054       $unwind$_get_osfhandle     0000000180023054     libucrt:osfinfo.obj
 0002:00009054       $unwind$__doserrno         0000000180023054     libucrt:errno.obj
 0002:00009054       $unwind$__pctype_func      0000000180023054     libucrt:ctype.obj
 0002:00009054       $unwind$??__E_AtlBaseModule@ATL@@YAXXZ 0000000180023054     atls:atlbase.obj
 0002:00009054       $unwind$?state_case_normal_tchar@?$output_processor@DV?$string_output_adapter@D@__crt_stdio_output@@V?$format_validation_base@DV?$string_output_adapter@D@__crt_stdio_output@@@2@@__crt_stdio_output@@AEAA_ND@Z 0000000180023054     libucrt:output.obj
 0002:00009054       $unwind$?validate_stream_is_ansi_if_required@?$__acrt_stdio_char_traits@D@@SA_NQEAU_iobuf@@@Z 0000000180023054     libucrt:output.obj
 0002:00009054       $unwind$__GSHandlerCheck   0000000180023054     LIBCMT:_gshandler_.obj
 0002:00009054       $unwind$toupper            0000000180023054     libucrt:tolower_toupper.obj
 0002:00009054       $unwind$__acrt_thread_detach 0000000180023054     libucrt:initialization.obj
 0002:00009054       $unwind$_msize_base        0000000180023054     libucrt:msize.obj
 0002:00009054       $unwind$uninitialize_environment 0000000180023054     libucrt:initialization.obj
 0002:00009054       $unwind$uninitialize_allocated_io_buffers 0000000180023054     libucrt:initialization.obj
 0002:00009054       $unwind$?state_case_size@?$output_processor@DV?$string_output_adapter@D@__crt_stdio_output@@V?$format_validation_base@DV?$string_output_adapter@D@__crt_stdio_output@@@2@@__crt_stdio_output@@AEAA_NXZ 0000000180023054     libucrt:output.obj
 0002:00009054       $unwind$initialize_c       0000000180023054     libucrt:initialization.obj
 0002:00009054       $unwind$?__GetCurrentState@@YAHPEA_KPEAU_xDISPATCHER_CONTEXT@@PEBU_s_FuncInfo@@@Z 0000000180023054     libvcruntime:riscehstate.obj
 0002:00009054       $unwind$tolower            0000000180023054     libucrt:tolower_toupper.obj
 0002:00009054       $unwind$atexit             0000000180023054     LIBCMT:utility.obj
 0002:00009054       $unwind$__acrt_initialize_multibyte 0000000180023054     libucrt:mbctype.obj
 0002:00009054       $unwind$_GetImageBase      0000000180023054     libvcruntime:risctrnsctrl.obj
 0002:00009054       $unwind$__FrameUnwindFilter 0000000180023054     libvcruntime:ehhelpers.obj
 0002:00009054       $unwind$?_Xlen@?$basic_string@DU?$char_traits@D@std@@V?$allocator@D@2@@std@@SAXXZ 0000000180023054     deviceList.obj
 0002:00009054       $unwind$??__FdeviceMap@@YAXXZ 0000000180023054     deviceList.obj
 0002:0000905c       $unwind$??$SetMethod@VObject@v8@@VLocal@2@@Nan@@YAXV?$Local@VObject@v8@@@v8@@PEBDP6AXAEBV?$FunctionCallbackInfo@VValue@v8@@@0@@Z@Z 000000018002305c     detection.obj
 0002:00009068       $chain$3$??$SetMethod@VObject@v8@@VLocal@2@@Nan@@YAXV?$Local@VObject@v8@@@v8@@PEBDP6AXAEBV?$FunctionCallbackInfo@VValue@v8@@@0@@Z@Z 0000000180023068     detection.obj
 0002:00009088       $chain$4$??$SetMethod@VObject@v8@@VLocal@2@@Nan@@YAXV?$Local@VObject@v8@@@v8@@PEBDP6AXAEBV?$FunctionCallbackInfo@VValue@v8@@@0@@Z@Z 0000000180023088     detection.obj
 0002:0000909c       $chain$5$??$SetMethod@VObject@v8@@VLocal@2@@Nan@@YAXV?$Local@VObject@v8@@@v8@@PEBDP6AXAEBV?$FunctionCallbackInfo@VValue@v8@@@0@@Z@Z 000000018002309c     detection.obj
 0002:000090ac       $chain$6$??$SetMethod@VObject@v8@@VLocal@2@@Nan@@YAXV?$Local@VObject@v8@@@v8@@PEBDP6AXAEBV?$FunctionCallbackInfo@VValue@v8@@@0@@Z@Z 00000001800230ac     detection.obj
 0002:000090bc       $unwind$??$SetMethodAux@V?$Local@VObject@v8@@@v8@@@imp@Nan@@YAXV?$Local@VObject@v8@@@v8@@V?$Local@VString@v8@@@3@V?$Local@VFunctionTemplate@v8@@@3@ZZ 00000001800230bc     detection.obj
 0002:000090cc       $unwind$?AddItemToList@@YAXPEADPEAU_DeviceItem_t@@@Z 00000001800230cc     deviceList.obj
 0002:000090e4       $unwind$?GetItemFromList@@YAPEAU_DeviceItem_t@@PEAD@Z 00000001800230e4     deviceList.obj
 0002:000090fc       $chain$1$?GetItemFromList@@YAPEAU_DeviceItem_t@@PEAD@Z 00000001800230fc     deviceList.obj
 0002:00009114       $chain$2$?GetItemFromList@@YAPEAU_DeviceItem_t@@PEAD@Z 0000000180023114     deviceList.obj
 0002:00009128       $chain$5$?GetItemFromList@@YAPEAU_DeviceItem_t@@PEAD@Z 0000000180023128     deviceList.obj
 0002:00009128       $chain$3$?GetItemFromList@@YAPEAU_DeviceItem_t@@PEAD@Z 0000000180023128     deviceList.obj
 0002:00009138       $chain$4$?GetItemFromList@@YAPEAU_DeviceItem_t@@PEAD@Z 0000000180023138     deviceList.obj
 0002:0000914c       $chain$6$?GetItemFromList@@YAPEAU_DeviceItem_t@@PEAD@Z 000000018002314c     deviceList.obj
 0002:0000915c       $unwind$?IsItemAlreadyStored@@YA_NPEAD@Z 000000018002315c     deviceList.obj
 0002:00009174       $chain$1$?IsItemAlreadyStored@@YA_NPEAD@Z 0000000180023174     deviceList.obj
 0002:0000918c       $chain$2$?IsItemAlreadyStored@@YA_NPEAD@Z 000000018002318c     deviceList.obj
 0002:000091a0       $chain$3$?IsItemAlreadyStored@@YA_NPEAD@Z 00000001800231a0     deviceList.obj
 0002:000091a0       $chain$5$?IsItemAlreadyStored@@YA_NPEAD@Z 00000001800231a0     deviceList.obj
 0002:000091b0       $chain$4$?IsItemAlreadyStored@@YA_NPEAD@Z 00000001800231b0     deviceList.obj
 0002:000091c4       $chain$6$?IsItemAlreadyStored@@YA_NPEAD@Z 00000001800231c4     deviceList.obj
 0002:000091d4       $unwind$?initialize_stdio_handles_nolock@@YAXXZ 00000001800231d4     libucrt:ioinit.obj
 0002:000091d4       $unwind$?CopyElement@@YAPEAUListResultItem_t@@PEAU1@@Z 00000001800231d4     deviceList.obj
 0002:000091d4       $unwind$__std_exception_copy 00000001800231d4     libvcruntime:std_exception.obj
 0002:000091d4       $unwind$_free_osfhnd       00000001800231d4     libucrt:osfinfo.obj
 0002:000091e8       $unwind$?erase@?$_Tree@V?$_Tmap_traits@V?$basic_string@DU?$char_traits@D@std@@V?$allocator@D@2@@std@@PEAU_DeviceItem_t@@U?$less@V?$basic_string@DU?$char_traits@D@std@@V?$allocator@D@2@@std@@@2@V?$allocator@U?$pair@$$CBV?$basic_string@DU?$char_traits@D@std@@V?$allocator@D@2@@std@@PEAU_DeviceItem_t@@@std@@@2@$0A@@std@@@std@@QEAA?AV?$_Tree_iterator@V?$_Tree_val@U?$_Tree_simple_types@U?$pair@$$CBV?$basic_string@DU?$char_traits@D@std@@V?$allocator@D@2@@std@@PEAU_DeviceItem_t@@@std@@@std@@@std@@@2@V?$_Tree_const_iterator@V?$_Tree_val@U?$_Tree_simple_types@U?$pair@$$CBV?$basic_string@DU?$char_traits@D@std@@V?$allocator@D@2@@std@@PEAU_DeviceItem_t@@@std@@@std@@@std@@@2@0@Z 00000001800231e8     deviceList.obj
 0002:000091e8       $unwind$?SetString@?$CSimpleStringT@D$0A@@ATL@@QEAAXPEBDH@Z 00000001800231e8     detection_win.obj
 0002:00009200       $unwind$?assign@?$basic_string@DU?$char_traits@D@std@@V?$allocator@D@2@@std@@QEAAAEAV12@QEBD_K@Z 0000000180023200     deviceList.obj
 0002:00009214       $chain$0$?assign@?$basic_string@DU?$char_traits@D@std@@V?$allocator@D@2@@std@@QEAAAEAV12@QEBD_K@Z 0000000180023214     deviceList.obj
 0002:00009228       $chain$3$?assign@?$basic_string@DU?$char_traits@D@std@@V?$allocator@D@2@@std@@QEAAAEAV12@QEBD_K@Z 0000000180023228     deviceList.obj
 0002:00009228       $chain$1$?assign@?$basic_string@DU?$char_traits@D@std@@V?$allocator@D@2@@std@@QEAAAEAV12@QEBD_K@Z 0000000180023228     deviceList.obj
 0002:00009238       $chain$2$?assign@?$basic_string@DU?$char_traits@D@std@@V?$allocator@D@2@@std@@QEAAAEAV12@QEBD_K@Z 0000000180023238     deviceList.obj
 0002:0000924c       $unwind$?_Extract@?$_Tree_val@U?$_Tree_simple_types@U?$pair@$$CBV?$basic_string@DU?$char_traits@D@std@@V?$allocator@D@2@@std@@PEAU_DeviceItem_t@@@std@@@std@@@std@@QEAAPEAU?$_Tree_node@U?$pair@$$CBV?$basic_string@DU?$char_traits@D@std@@V?$allocator@D@2@@std@@PEAU_DeviceItem_t@@@std@@PEAX@2@V?$_Tree_const_iterator@V?$_Tree_val@U?$_Tree_simple_types@U?$pair@$$CBV?$basic_string@DU?$char_traits@D@std@@V?$allocator@D@2@@std@@PEAU_DeviceItem_t@@@std@@@std@@@std@@@2@@Z 000000018002324c     deviceList.obj
 0002:00009258       $unwind$?_Erase@?$_Tree@V?$_Tmap_traits@V?$basic_string@DU?$char_traits@D@std@@V?$allocator@D@2@@std@@PEAU_DeviceItem_t@@U?$less@V?$basic_string@DU?$char_traits@D@std@@V?$allocator@D@2@@std@@@2@V?$allocator@U?$pair@$$CBV?$basic_string@DU?$char_traits@D@std@@V?$allocator@D@2@@std@@PEAU_DeviceItem_t@@@std@@@2@$0A@@std@@@std@@IEAAXPEAU?$_Tree_node@U?$pair@$$CBV?$basic_string@DU?$char_traits@D@std@@V?$allocator@D@2@@std@@PEAU_DeviceItem_t@@@std@@PEAX@2@@Z 0000000180023258     deviceList.obj
 0002:00009264       $chain$0$?_Erase@?$_Tree@V?$_Tmap_traits@V?$basic_string@DU?$char_traits@D@std@@V?$allocator@D@2@@std@@PEAU_DeviceItem_t@@U?$less@V?$basic_string@DU?$char_traits@D@std@@V?$allocator@D@2@@std@@@2@V?$allocator@U?$pair@$$CBV?$basic_string@DU?$char_traits@D@std@@V?$allocator@D@2@@std@@PEAU_DeviceItem_t@@@std@@@2@$0A@@std@@@std@@IEAAXPEAU?$_Tree_node@U?$pair@$$CBV?$basic_string@DU?$char_traits@D@std@@V?$allocator@D@2@@std@@PEAU_DeviceItem_t@@@std@@PEAX@2@@Z 0000000180023264     deviceList.obj
 0002:00009278       $chain$1$?_Erase@?$_Tree@V?$_Tmap_traits@V?$basic_string@DU?$char_traits@D@std@@V?$allocator@D@2@@std@@PEAU_DeviceItem_t@@U?$less@V?$basic_string@DU?$char_traits@D@std@@V?$allocator@D@2@@std@@@2@V?$allocator@U?$pair@$$CBV?$basic_string@DU?$char_traits@D@std@@V?$allocator@D@2@@std@@PEAU_DeviceItem_t@@@std@@@2@$0A@@std@@@std@@IEAAXPEAU?$_Tree_node@U?$pair@$$CBV?$basic_string@DU?$char_traits@D@std@@V?$allocator@D@2@@std@@PEAU_DeviceItem_t@@@std@@PEAX@2@@Z 0000000180023278     deviceList.obj
 0002:00009288       $chain$2$?_Erase@?$_Tree@V?$_Tmap_traits@V?$basic_string@DU?$char_traits@D@std@@V?$allocator@D@2@@std@@PEAU_DeviceItem_t@@U?$less@V?$basic_string@DU?$char_traits@D@std@@V?$allocator@D@2@@std@@@2@V?$allocator@U?$pair@$$CBV?$basic_string@DU?$char_traits@D@std@@V?$allocator@D@2@@std@@PEAU_DeviceItem_t@@@std@@@2@$0A@@std@@@std@@IEAAXPEAU?$_Tree_node@U?$pair@$$CBV?$basic_string@DU?$char_traits@D@std@@V?$allocator@D@2@@std@@PEAU_DeviceItem_t@@@std@@PEAX@2@@Z 0000000180023288     deviceList.obj
 0002:0000929c       $unwind$??$_Eqrange@V?$basic_string@DU?$char_traits@D@std@@V?$allocator@D@2@@std@@@?$_Tree@V?$_Tmap_traits@V?$basic_string@DU?$char_traits@D@std@@V?$allocator@D@2@@std@@PEAU_DeviceItem_t@@U?$less@V?$basic_string@DU?$char_traits@D@std@@V?$allocator@D@2@@std@@@2@V?$allocator@U?$pair@$$CBV?$basic_string@DU?$char_traits@D@std@@V?$allocator@D@2@@std@@PEAU_DeviceItem_t@@@std@@@2@$0A@@std@@@std@@IEBA?AU?$pair@V?$_Tree_const_iterator@V?$_Tree_val@U?$_Tree_simple_types@U?$pair@$$CBV?$basic_string@DU?$char_traits@D@std@@V?$allocator@D@2@@std@@PEAU_DeviceItem_t@@@std@@@std@@@std@@@std@@V12@@1@AEBV?$basic_string@DU?$char_traits@D@std@@V?$allocator@D@2@@1@@Z 000000018002329c     deviceList.obj
 0002:000092b4       $unwind$??$_Insert_nohint@AEAU?$pair@$$CBV?$basic_string@DU?$char_traits@D@std@@V?$allocator@D@2@@std@@PEAU_DeviceItem_t@@@std@@PEAU?$_Tree_node@U?$pair@$$CBV?$basic_string@DU?$char_traits@D@std@@V?$allocator@D@2@@std@@PEAU_DeviceItem_t@@@std@@PEAX@2@@?$_Tree@V?$_Tmap_traits@V?$basic_string@DU?$char_traits@D@std@@V?$allocator@D@2@@std@@PEAU_DeviceItem_t@@U?$less@V?$basic_string@DU?$char_traits@D@std@@V?$allocator@D@2@@std@@@2@V?$allocator@U?$pair@$$CBV?$basic_string@DU?$char_traits@D@std@@V?$allocator@D@2@@std@@PEAU_DeviceItem_t@@@std@@@2@$0A@@std@@@std@@IEAA?AU?$pair@V?$_Tree_iterator@V?$_Tree_val@U?$_Tree_simple_types@U?$pair@$$CBV?$basic_string@DU?$char_traits@D@std@@V?$allocator@D@2@@std@@PEAU_DeviceItem_t@@@std@@@std@@@std@@@std@@_N@1@_NAEAU?$pair@$$CBV?$basic_string@DU?$char_traits@D@std@@V?$allocator@D@2@@std@@PEAU_DeviceItem_t@@@1@PEAU?$_Tree_node@U?$pair@$$CBV?$basic_string@DU?$char_traits@D@std@@V?$allocator@D@2@@std@@PEAU_DeviceItem_t@@@std@@PEAX@1@@Z 00000001800232b4     deviceList.obj
 0002:000092cc       $chain$0$??$_Insert_nohint@AEAU?$pair@$$CBV?$basic_string@DU?$char_traits@D@std@@V?$allocator@D@2@@std@@PEAU_DeviceItem_t@@@std@@PEAU?$_Tree_node@U?$pair@$$CBV?$basic_string@DU?$char_traits@D@std@@V?$allocator@D@2@@std@@PEAU_DeviceItem_t@@@std@@PEAX@2@@?$_Tree@V?$_Tmap_traits@V?$basic_string@DU?$char_traits@D@std@@V?$allocator@D@2@@std@@PEAU_DeviceItem_t@@U?$less@V?$basic_string@DU?$char_traits@D@std@@V?$allocator@D@2@@std@@@2@V?$allocator@U?$pair@$$CBV?$basic_string@DU?$char_traits@D@std@@V?$allocator@D@2@@std@@PEAU_DeviceItem_t@@@std@@@2@$0A@@std@@@std@@IEAA?AU?$pair@V?$_Tree_iterator@V?$_Tree_val@U?$_Tree_simple_types@U?$pair@$$CBV?$basic_string@DU?$char_traits@D@std@@V?$allocator@D@2@@std@@PEAU_DeviceItem_t@@@std@@@std@@@std@@@std@@_N@1@_NAEAU?$pair@$$CBV?$basic_string@DU?$char_traits@D@std@@V?$allocator@D@2@@std@@PEAU_DeviceItem_t@@@1@PEAU?$_Tree_node@U?$pair@$$CBV?$basic_string@DU?$char_traits@D@std@@V?$allocator@D@2@@std@@PEAU_DeviceItem_t@@@std@@PEAX@1@@Z 00000001800232cc     deviceList.obj
 0002:000092e0       $chain$1$??$_Insert_nohint@AEAU?$pair@$$CBV?$basic_string@DU?$char_traits@D@std@@V?$allocator@D@2@@std@@PEAU_DeviceItem_t@@@std@@PEAU?$_Tree_node@U?$pair@$$CBV?$basic_string@DU?$char_traits@D@std@@V?$allocator@D@2@@std@@PEAU_DeviceItem_t@@@std@@PEAX@2@@?$_Tree@V?$_Tmap_traits@V?$basic_string@DU?$char_traits@D@std@@V?$allocator@D@2@@std@@PEAU_DeviceItem_t@@U?$less@V?$basic_string@DU?$char_traits@D@std@@V?$allocator@D@2@@std@@@2@V?$allocator@U?$pair@$$CBV?$basic_string@DU?$char_traits@D@std@@V?$allocator@D@2@@std@@PEAU_DeviceItem_t@@@std@@@2@$0A@@std@@@std@@IEAA?AU?$pair@V?$_Tree_iterator@V?$_Tree_val@U?$_Tree_simple_types@U?$pair@$$CBV?$basic_string@DU?$char_traits@D@std@@V?$allocator@D@2@@std@@PEAU_DeviceItem_t@@@std@@@std@@@std@@@std@@_N@1@_NAEAU?$pair@$$CBV?$basic_string@DU?$char_traits@D@std@@V?$allocator@D@2@@std@@PEAU_DeviceItem_t@@@1@PEAU?$_Tree_node@U?$pair@$$CBV?$basic_string@DU?$char_traits@D@std@@V?$allocator@D@2@@std@@PEAU_DeviceItem_t@@@std@@PEAX@1@@Z 00000001800232e0     deviceList.obj
 0002:000092f0       $unwind$printf             00000001800232f0     detection_win.obj
 0002:000092fc       $unwind$__acrt_free_locale 00000001800232fc     libucrt:locale_refcounting.obj
 0002:000092fc       $unwind$_recalloc_base     00000001800232fc     libucrt:recalloc.obj
 0002:000092fc       $unwind$?GetHInstanceAt@CAtlBaseModule@ATL@@QEAAPEAUHINSTANCE__@@H@Z 00000001800232fc     atls:atlbase.obj
 0002:000092fc       $unwind$??$ensure_buffer_is_big_enough@D@formatting_buffer@__crt_stdio_output@@QEAA_N_K@Z 00000001800232fc     libucrt:output.obj
 0002:000092fc       $unwind$_initterm          00000001800232fc     libucrt:initterm.obj
 0002:000092fc       $unwind$?_ExecutionInCatch@@YAHPEAU_xDISPATCHER_CONTEXT@@PEBU_s_FuncInfo@@@Z 00000001800232fc     libvcruntime:risctrnsctrl.obj
 0002:000092fc       $unwind$_seh_filter_exe    00000001800232fc     libucrt:exception_filter.obj
 0002:000092fc       $unwind$?_AtlGetStringResourceImage@ATL@@YAPEBUATLSTRINGRESOURCEIMAGE@1@PEAUHINSTANCE__@@PEAUHRSRC__@@I@Z 00000001800232fc     detection_win.obj
 0002:000092fc       $unwind$__acrt_lowio_create_handle_array 00000001800232fc     libucrt:osfinfo.obj
 0002:000092fc       $unwind$?setSBCS@@YAXPEAU__crt_multibyte_data@@@Z 00000001800232fc     libucrt:mbctype.obj
 0002:000092fc       $unwind$__scrt_dllmain_exception_filter 00000001800232fc     LIBCMT:utility.obj
 0002:00009310       $unwind$??_Gbad_exception@std@@UEAAPEAXI@Z 0000000180023310     libvcruntime:frame.obj
 0002:00009310       $unwind$__acrt_stdio_begin_temporary_buffering_nolock 0000000180023310     libucrt:_sftbuf.obj
 0002:00009310       $unwind$__acrt_getptd      0000000180023310     libucrt:per_thread_data.obj
 0002:00009310       $unwind$??_Gexception@std@@UEAAPEAXI@Z 0000000180023310     libcpmt:xthrow.obj
 0002:00009310       $unwind$??_GCWin32Heap@ATL@@UEAAPEAXI@Z 0000000180023310     detection_win.obj
 0002:00009310       $unwind$_RTC_Terminate     0000000180023310     LIBCMT:_initsect_.obj
 0002:00009310       $unwind$__acrt_getptd_noexit 0000000180023310     libucrt:per_thread_data.obj
 0002:00009310       $unwind$?Allocate@CAtlStringMgr@ATL@@UEAAPEAUCStringData@2@HH@Z 0000000180023310     detection_win.obj
 0002:00009310       $unwind$_realloc_base      0000000180023310     libucrt:realloc_base.obj
 0002:00009310       $unwind$__acrt_FlsSetValue 0000000180023310     libucrt:winapi_thunks.obj
 0002:00009310       $unwind$?replace_current_thread_locale_nolock@@YAXQEAU__acrt_ptd@@QEAU__crt_locale_data@@@Z 0000000180023310     libucrt:per_thread_data.obj
 0002:00009310       $unwind$?type_case_c_tchar@?$output_processor@DV?$stream_output_adapter@D@__crt_stdio_output@@V?$standard_base@DV?$stream_output_adapter@D@__crt_stdio_output@@@2@@__crt_stdio_output@@AEAA_ND@Z 0000000180023310     libucrt:output.obj
 0002:00009310       $unwind$__acrt_errno_map_os_error 0000000180023310     libucrt:errno.obj
 0002:00009310       $unwind$??$common_initialize_environment_nolock@D@@YAHXZ 0000000180023310     libucrt:environment_initialization.obj
 0002:00009310       $unwind$__acrt_uninitialize_lowio 0000000180023310     libucrt:ioinit.obj
 0002:00009310       $unwind$_FindAndUnlinkFrame 0000000180023310     libvcruntime:risctrnsctrl.obj
 0002:00009310       $unwind$__acrt_execute_uninitializers 0000000180023310     libucrt:shared_initialization.obj
 0002:00009310       $unwind$__acrt_fp_strflt_to_string 0000000180023310     libucrt:_fptostr.obj
 0002:00009310       $unwind$__acrt_LocaleNameToLCID 0000000180023310     libucrt:winapi_thunks.obj
 0002:00009310       $unwind$??_Glogic_error@std@@UEAAPEAXI@Z 0000000180023310     libcpmt:xthrow.obj
 0002:00009310       $unwind$_initterm_e        0000000180023310     libucrt:initterm.obj
 0002:00009310       $unwind$?state_case_normal_tchar@?$output_processor@DV?$stream_output_adapter@D@__crt_stdio_output@@V?$standard_base@DV?$stream_output_adapter@D@__crt_stdio_output@@@2@@__crt_stdio_output@@AEAA_ND@Z 0000000180023310     libucrt:output.obj
 0002:00009310       $unwind$??_Gbad_alloc@std@@UEAAPEAXI@Z 0000000180023310     libcpmt:xthrow.obj
 0002:00009310       $unwind$?__SetUnwindTryBlock@@YAXPEA_KPEAU_xDISPATCHER_CONTEXT@@PEBU_s_FuncInfo@@H@Z 0000000180023310     libvcruntime:riscehstate.obj
 0002:00009310       $unwind$?type_case_c_tchar@?$output_processor@DV?$string_output_adapter@D@__crt_stdio_output@@V?$format_validation_base@DV?$string_output_adapter@D@__crt_stdio_output@@@2@@__crt_stdio_output@@AEAA_ND@Z 0000000180023310     libucrt:output.obj
 0002:00009310       $unwind$__acrt_stdio_allocate_buffer_nolock 0000000180023310     libucrt:_getbuf.obj
 0002:00009310       $unwind$??0CAtlBaseModule@ATL@@QEAA@XZ 0000000180023310     atls:atlbase.obj
 0002:00009310       $unwind$?CloneData@?$CSimpleStringT@D$0A@@ATL@@CAPEAUCStringData@2@PEAU32@@Z 0000000180023310     detection_win.obj
 0002:00009310       $unwind$_updatetlocinfoEx_nolock 0000000180023310     libucrt:locale_refcounting.obj
 0002:00009310       $unwind$?force_decimal_point@__crt_stdio_output@@YAXPEADQEAU__crt_locale_pointers@@@Z 0000000180023310     libucrt:output.obj
 0002:00009310       $unwind$??_Gbad_array_new_length@std@@UEAAPEAXI@Z 0000000180023310     LIBCMT:throw_bad_alloc.obj
 0002:00009310       $unwind$__vcrt_FlsSetValue 0000000180023310     libvcruntime:winapi_downlevel.obj
 0002:00009310       $unwind$??_Gout_of_range@std@@UEAAPEAXI@Z 0000000180023310     libcpmt:xthrow.obj
 0002:00009310       $unwind$_fclose_nolock     0000000180023310     libucrt:fclose.obj
 0002:00009310       $unwind$_close_nolock      0000000180023310     libucrt:close.obj
 0002:00009310       $unwind$strncpy_s          0000000180023310     libucrt:strncpy_s.obj
 0002:00009310       $unwind$_RTC_Initialize    0000000180023310     LIBCMT:_initsect_.obj
 0002:00009310       $unwind$??_Glength_error@std@@UEAAPEAXI@Z 0000000180023310     libcpmt:xthrow.obj
 0002:0000931c       $unwind$?GetInstance@CAtlStringMgr@ATL@@SAPEAUIAtlStringMgr@2@XZ 000000018002331c     detection_win.obj
 0002:00009328       $unwind$?cbAfter@@YAXPEAUuv_work_s@@@Z 0000000180023328     detection_win.obj
 0002:00009330       $chain$0$?cbAfter@@YAXPEAUuv_work_s@@@Z 0000000180023330     detection_win.obj
 0002:00009344       $chain$1$?cbAfter@@YAXPEAUuv_work_s@@@Z 0000000180023344     detection_win.obj
 0002:00009354       $unwind$?InitDetection@@YAXXZ 0000000180023354     detection_win.obj
 0002:00009364       $chain$0$?InitDetection@@YAXXZ 0000000180023364     detection_win.obj
 0002:00009378       $chain$3$?InitDetection@@YAXXZ 0000000180023378     detection_win.obj
 0002:00009394       $chain$4$?InitDetection@@YAXXZ 0000000180023394     detection_win.obj
 0002:000093a8       $chain$5$?InitDetection@@YAXXZ 00000001800233a8     detection_win.obj
 0002:000093b8       $chain$6$?InitDetection@@YAXXZ 00000001800233b8     detection_win.obj
 0002:000093c8       $chain$7$?InitDetection@@YAXXZ 00000001800233c8     detection_win.obj
 0002:000093d8       $unwind$?EIO_Find@@YAXPEAUuv_work_s@@@Z 00000001800233d8     detection_win.obj
 0002:000093e8       $chain$3$?EIO_Find@@YAXPEAUuv_work_s@@@Z 00000001800233e8     detection_win.obj
 0002:00009408       $chain$4$?EIO_Find@@YAXPEAUuv_work_s@@@Z 0000000180023408     detection_win.obj
 0002:00009418       $chain$5$?EIO_Find@@YAXPEAUuv_work_s@@@Z 0000000180023418     detection_win.obj
 0002:00009438       $unwind$?ListenerThread@@YAKPEAX@Z 0000000180023438     detection_win.obj
 0002:0000944c       $chain$0$?ListenerThread@@YAKPEAX@Z 000000018002344c     detection_win.obj
 0002:00009460       $chain$1$?ListenerThread@@YAKPEAX@Z 0000000180023460     detection_win.obj
 0002:00009470       $unwind$?ExtractDeviceInfo@@YAXPEAXPEAU_SP_DEVINFO_DATA@@PEADKPEAUListResultItem_t@@@Z 0000000180023470     detection_win.obj
 0002:00009490       $chain$0$?ExtractDeviceInfo@@YAXPEAXPEAU_SP_DEVINFO_DATA@@PEADKPEAUListResultItem_t@@@Z 0000000180023490     detection_win.obj
 0002:000094a4       $chain$1$?ExtractDeviceInfo@@YAXPEAXPEAU_SP_DEVINFO_DATA@@PEADKPEAUListResultItem_t@@@Z 00000001800234a4     detection_win.obj
 0002:000094b4       $unwind$?UpdateDevice@@YAXPEAU_DEV_BROADCAST_DEVICEINTERFACE_A@@_KW4_DeviceState_t@@@Z 00000001800234b4     detection_win.obj
 0002:000094d8       $unwind$?LoadStringA@?$CStringT@DV?$StrTraitATL@DV?$ChTraitsCRT@D@ATL@@@ATL@@@ATL@@QEAAHI@Z 00000001800234d8     detection_win.obj
 0002:000094f0       $unwind$?CopyChars@?$CSimpleStringT@D$0A@@ATL@@SAXPEAD_KPEBDH@Z 00000001800234f0     detection_win.obj
 0002:00009500       $unwind$?Fork@?$CSimpleStringT@D$0A@@ATL@@AEAAXH@Z 0000000180023500     detection_win.obj
 0002:00009518       $chain$0$?Fork@?$CSimpleStringT@D$0A@@ATL@@AEAAXH@Z 0000000180023518     detection_win.obj
 0002:0000952c       $chain$1$?Fork@?$CSimpleStringT@D$0A@@ATL@@AEAAXH@Z 000000018002352c     detection_win.obj
 0002:0000953c       $unwind$??$_snprintf_s@$0EA@@@YAHAEAY0EA@D_KPEBDZZ 000000018002353c     detection_win.obj
 0002:0000954c       $unwind$_raise_exc         000000018002354c     libucrt:fpexcept.obj
 0002:0000954c       $unwind$?__scrt_throw_std_bad_array_new_length@@YAXXZ 000000018002354c     LIBCMT:throw_bad_alloc.obj
 0002:0000954c       $unwind$?_Xlength_error@std@@YAXPEBD@Z 000000018002354c     libcpmt:xthrow.obj
 0002:0000954c       $unwind$?_Xout_of_range@std@@YAXPEBD@Z 000000018002354c     libcpmt:xthrow.obj
 0002:0000954c       $unwind$?__scrt_throw_std_bad_alloc@@YAXXZ 000000018002354c     LIBCMT:throw_bad_alloc.obj
 0002:00009554       $unwind$??0length_error@std@@QEAA@PEBD@Z 0000000180023554     libcpmt:xthrow.obj
 0002:00009554       $unwind$??0out_of_range@std@@QEAA@PEBD@Z 0000000180023554     libcpmt:xthrow.obj
 0002:00009554       $unwind$?__mbrtowc_utf8@__crt_mbstring@@YA_KPEA_WPEBD_KPEAU_Mbstatet@@@Z 0000000180023554     libucrt:mbrtowc.obj
 0002:00009560       $xdatasym                  0000000180023560     LIBCMT:_amdsecgs_.obj
 0002:00009564       $unwind$__scrt_is_nonwritable_in_current_image 0000000180023564     LIBCMT:utility.obj
 0002:00009584       $unwind$__scrt_is_nonwritable_in_current_image$filt$0 0000000180023584     LIBCMT:utility.obj
 0002:0000958c       $unwind$__scrt_initialize_onexit_tables 000000018002358c     LIBCMT:utility.obj
 0002:00009598       $unwind$?dllmain_crt_process_attach@@YAHQEAUHINSTANCE__@@QEAX@Z 0000000180023598     LIBCMT:dll_dllmain.obj
 0002:000095d4       $unwind$_fcloseall$fin$0   00000001800235d4     libucrt:closeall.obj
 0002:000095d4       $unwind$__acrt_lowio_ensure_fh_exists$fin$0 00000001800235d4     libucrt:osfinfo.obj
 0002:000095d4       $unwind$__FrameUnwindToState$fin$1 00000001800235d4     libvcruntime:frame.obj
 0002:000095d4       $unwind$?fin$0@?0???$?RV<lambda_7777bce6b2f8c936911f934f8298dc43>@@AEAV<lambda_f03950bc5685219e0bcd2087efbe011e>@@V<lambda_3883c3dff614d5e0c5f61bb1ac94921c>@@@?$__crt_seh_guarded_call@H@@QEAAH$$QEAV<lambda_7777bce6b2f8c936911f934f8298dc43>@@AEAV<lambda_f03950bc5685219e0bcd2087efbe011e>@@$$QEAV<lambda_3883c3dff614d5e0c5f61bb1ac94921c>@@@Z@4HA 00000001800235d4     libucrt:onexit.obj
 0002:000095d4       $unwind$?fin$0@?0???$?RV<lambda_8369fcb7c4df1e85de37618bd2b85f07>@@AEAV<lambda_a10e4b102d4a2c3aac6f4f48bbdf488f>@@V<lambda_5b7707bd6d7a0c4713179f36c7fd995d>@@@?$__crt_seh_guarded_call@H@@QEAAH$$QEAV<lambda_8369fcb7c4df1e85de37618bd2b85f07>@@AEAV<lambda_a10e4b102d4a2c3aac6f4f48bbdf488f>@@$$QEAV<lambda_5b7707bd6d7a0c4713179f36c7fd995d>@@@Z@4HA 00000001800235d4     libucrt:onexit.obj
 0002:000095d4       $unwind$?fin$0@?0???$?RV<lambda_aa87e3671a710a21b5dc78c0bdf72e11>@@AEAV<lambda_92619d2358a28f41a33ba319515a20b9>@@V<lambda_6992ecaafeb10aed2b74cb1fae11a551>@@@?$__crt_seh_guarded_call@X@@QEAAX$$QEAV<lambda_aa87e3671a710a21b5dc78c0bdf72e11>@@AEAV<lambda_92619d2358a28f41a33ba319515a20b9>@@$$QEAV<lambda_6992ecaafeb10aed2b74cb1fae11a551>@@@Z@4HA 00000001800235d4     libucrt:per_thread_data.obj
 0002:000095d4       $unwind$?fin$0@?0???$?RV<lambda_842d9ff0dc9ef11c61343bbaebe7f885>@@AEAV<lambda_c5860995281e5c4ce005b3de8f5874ee>@@V<lambda_d90129c13df834fdcbf8d2b88dafcf2d>@@@?$__crt_seh_guarded_call@X@@QEAAX$$QEAV<lambda_842d9ff0dc9ef11c61343bbaebe7f885>@@AEAV<lambda_c5860995281e5c4ce005b3de8f5874ee>@@$$QEAV<lambda_d90129c13df834fdcbf8d2b88dafcf2d>@@@Z@4HA 00000001800235d4     libucrt:fflush.obj
 0002:000095d4       $unwind$?fin$0@?0???$?RV<lambda_f2e299630e499de9f9a165e60fcd3db5>@@AEAV<lambda_2ae9d31cdba2644fcbeaf08da7c24588>@@V<lambda_40d01ff24d0e7b3814fdbdcee8eab3c7>@@@?$__crt_seh_guarded_call@X@@QEAAX$$QEAV<lambda_f2e299630e499de9f9a165e60fcd3db5>@@AEAV<lambda_2ae9d31cdba2644fcbeaf08da7c24588>@@$$QEAV<lambda_40d01ff24d0e7b3814fdbdcee8eab3c7>@@@Z@4HA 00000001800235d4     libucrt:per_thread_data.obj
 0002:000095d4       $unwind$?fin$0@?0??update_thread_multibyte_data_internal@@YAPEAU__crt_multibyte_data@@QEAU__acrt_ptd@@QEAPEAU1@@Z@4HA 00000001800235d4     libucrt:mbctype.obj
 0002:000095d4       $unwind$?fin$0@?0???$?RV<lambda_886d6c58226a84441f68b9f2b8217b83>@@AEAV<lambda_ab61a845afdef5b7c387490eaf3616ee>@@V<lambda_f7f22ab5edc0698d5f6905b0d3f44752>@@@?$__crt_seh_guarded_call@X@@QEAAX$$QEAV<lambda_886d6c58226a84441f68b9f2b8217b83>@@AEAV<lambda_ab61a845afdef5b7c387490eaf3616ee>@@$$QEAV<lambda_f7f22ab5edc0698d5f6905b0d3f44752>@@@Z@4HA 00000001800235d4     libucrt:fflush.obj
 0002:000095d4       $unwind$_write$fin$0       00000001800235d4     libucrt:write.obj
 0002:000095d4       $unwind$?fin$0@?0??dllmain_crt_process_detach@@YAH_N@Z@4HA 00000001800235d4     LIBCMT:dll_dllmain.obj
 0002:000095d4       $unwind$__acrt_update_thread_locale_data$fin$0 00000001800235d4     libucrt:locale_refcounting.obj
 0002:000095d4       $unwind$_query_new_handler$fin$0 00000001800235d4     libucrt:new_handler.obj
 0002:000095d4       $unwind$?fin$0@?0??dllmain_crt_process_attach@@YAHQEAUHINSTANCE__@@QEAX@Z@4HA 00000001800235d4     LIBCMT:dll_dllmain.obj
 0002:000095d4       $unwind$__acrt_initialize_lowio$fin$0 00000001800235d4     libucrt:ioinit.obj
 0002:000095d4       $unwind$_ctrlfp$filt$0     00000001800235d4     libucrt:fpctrl.obj
 0002:000095d4       $unwind$?fin$0@?0???$?RV<lambda_0ae27a3a962d80f24befdcbee591983d>@@AEAV<lambda_8d0ee55de4b1038c4002e0adecdf1839>@@V<lambda_dc504788e8f1664fe9b84e20bfb512f2>@@@?$__crt_seh_guarded_call@X@@QEAAX$$QEAV<lambda_0ae27a3a962d80f24befdcbee591983d>@@AEAV<lambda_8d0ee55de4b1038c4002e0adecdf1839>@@$$QEAV<lambda_dc504788e8f1664fe9b84e20bfb512f2>@@@Z@4HA 00000001800235d4     libucrt:per_thread_data.obj
 0002:000095d4       $unwind$?fin$0@?0???$?RV<lambda_a37b2b86f63e897a80ea819b0eb08c01>@@AEAV<lambda_38ce7e780aa69e748d6df282ebc68efe>@@V<lambda_99fb1378e971ab6e7edea83e3a7a83a2>@@@?$__crt_seh_guarded_call@H@@QEAAH$$QEAV<lambda_a37b2b86f63e897a80ea819b0eb08c01>@@AEAV<lambda_38ce7e780aa69e748d6df282ebc68efe>@@$$QEAV<lambda_99fb1378e971ab6e7edea83e3a7a83a2>@@@Z@4HA 00000001800235d4     libucrt:commit.obj
 0002:000095d4       $unwind$fclose$fin$0       00000001800235d4     libucrt:fclose.obj
 0002:000095d4       $unwind$__CxxCallCatchBlock$filt$0 00000001800235d4     libvcruntime:frame.obj
 0002:000095d4       $unwind$?fin$0@?0???$?RV<lambda_410d79af7f07d98d83a3f525b3859a53>@@AEAV<lambda_3e16ef9562a7dcce91392c22ab16ea36>@@V<lambda_38119f0e861e05405d8a144b9b982f0a>@@@?$__crt_seh_guarded_call@X@@QEAAX$$QEAV<lambda_410d79af7f07d98d83a3f525b3859a53>@@AEAV<lambda_3e16ef9562a7dcce91392c22ab16ea36>@@$$QEAV<lambda_38119f0e861e05405d8a144b9b982f0a>@@@Z@4HA 00000001800235d4     libucrt:wsetlocale.obj
 0002:000095d4       $unwind$?fin$0@?0???$common_lseek@_J@@YA_JH_JH@Z@4HA 00000001800235d4     libucrt:lseek.obj
 0002:000095d4       $unwind$?fin$0@?0???$?RV<lambda_751a882b2c74d4b022dec766aa51a29a>@@AEAV<lambda_628dfdc04ba53c8bfc02c9951375f3f5>@@V<lambda_f6c7be5f7998530c34de24c7437d6b54>@@@?$__crt_seh_guarded_call@H@@QEAAH$$QEAV<lambda_751a882b2c74d4b022dec766aa51a29a>@@AEAV<lambda_628dfdc04ba53c8bfc02c9951375f3f5>@@$$QEAV<lambda_f6c7be5f7998530c34de24c7437d6b54>@@@Z@4HA 00000001800235d4     libucrt:close.obj
 0002:000095d4       $unwind$?fin$0@?0???$?RV<lambda_2d41944a1d46af3157314b8a01080d33>@@AEAV<lambda_8f455de75cd7d7f24b4096f044d8b9e6>@@V<lambda_aa500f224e6afead328df44964fe2772>@@@?$__crt_seh_guarded_call@X@@QEAAX$$QEAV<lambda_2d41944a1d46af3157314b8a01080d33>@@AEAV<lambda_8f455de75cd7d7f24b4096f044d8b9e6>@@$$QEAV<lambda_aa500f224e6afead328df44964fe2772>@@@Z@4HA 00000001800235d4     libucrt:per_thread_data.obj
 0002:000095d4       $unwind$?fin$0@?0???$?RV<lambda_a62c933ada0517137acf5807a1eeac1f>@@AEAV<lambda_a31071773b9a94e445cbd5d04ef99106>@@V<lambda_56065050dbf3ada7e59a83db45153de3>@@@?$__crt_seh_guarded_call@H@@QEAAH$$QEAV<lambda_a62c933ada0517137acf5807a1eeac1f>@@AEAV<lambda_a31071773b9a94e445cbd5d04ef99106>@@$$QEAV<lambda_56065050dbf3ada7e59a83db45153de3>@@@Z@4HA 00000001800235d4     libucrt:output.obj
 0002:000095d4       $unwind$raise$fin$0        00000001800235d4     libucrt:signal.obj
 0002:000095d4       $unwind$?fin$0@?0???$?RV<lambda_d80eeec6fff315bfe5c115232f3240e3>@@AEAV<lambda_6e4b09c48022b2350581041d5f6b0c4c>@@V<lambda_2358e3775559c9db80273638284d5e45>@@@?$__crt_seh_guarded_call@X@@QEAAX$$QEAV<lambda_d80eeec6fff315bfe5c115232f3240e3>@@AEAV<lambda_6e4b09c48022b2350581041d5f6b0c4c>@@$$QEAV<lambda_2358e3775559c9db80273638284d5e45>@@@Z@4HA 00000001800235d4     libucrt:exit.obj
 0002:000095d4       $unwind$?filt$0@?0???R<lambda_6e4b09c48022b2350581041d5f6b0c4c>@@QEBA@XZ@4HA 00000001800235d4     libucrt:exit.obj
 0002:000095d4       $unwind$?fin$0@?0???$?RV<lambda_efdfa57d1f175319df784efa44bb7b81>@@AEAV<lambda_5f0a4c1567f8adc6734073e5d1e1b35c>@@V<lambda_2e8a7d3640ea6ccb4c2413664c2db6fd>@@@?$__crt_seh_guarded_call@X@@QEAAX$$QEAV<lambda_efdfa57d1f175319df784efa44bb7b81>@@AEAV<lambda_5f0a4c1567f8adc6734073e5d1e1b35c>@@$$QEAV<lambda_2e8a7d3640ea6ccb4c2413664c2db6fd>@@@Z@4HA 00000001800235d4     libucrt:mbctype.obj
 0002:000095d4       $unwind$_IsNonwritableInCurrentImage$filt$0 00000001800235d4     LIBCMT:pesect.obj
 0002:000095d4       $unwind$__FrameUnwindToState$filt$0 00000001800235d4     libvcruntime:frame.obj
 0002:000095d4       $unwind$?fin$0@?0???$?RV<lambda_450d765d439847d4c735a33c368b5fc0>@@AEAV<lambda_44731a7d0e6d81c3e6aa82d741081786>@@V<lambda_601a2a7da3b7a96e9554ac7215c4b07c>@@@?$__crt_seh_guarded_call@P6AXH@Z@@QEAAP6AXH@Z$$QEAV<lambda_450d765d439847d4c735a33c368b5fc0>@@AEAV<lambda_44731a7d0e6d81c3e6aa82d741081786>@@$$QEAV<lambda_601a2a7da3b7a96e9554ac7215c4b07c>@@@Z@4HA 00000001800235d4     libucrt:signal.obj
 0002:000095d4       $unwind$__DestructExceptionObject$filt$0 00000001800235d4     libvcruntime:ehhelpers.obj
 0002:000095dc       $unwind$?dllmain_crt_process_detach@@YAH_N@Z 00000001800235dc     LIBCMT:dll_dllmain.obj
 0002:00009610       $unwind$?dllmain_dispatch@@YAHQEAUHINSTANCE__@@KQEAX@Z 0000000180023610     LIBCMT:dll_dllmain.obj
 0002:00009638       $unwind$?filt$0@?0??dllmain_dispatch@@YAHQEAUHINSTANCE__@@KQEAX@Z@4HA 0000000180023638     LIBCMT:dll_dllmain.obj
 0002:00009640       $unwind$__vcrt_InitializeCriticalSectionEx 0000000180023640     libvcruntime:winapi_downlevel.obj
 0002:00009640       $unwind$__acrt_stdio_flush_and_write_narrow_nolock 0000000180023640     libucrt:_flsbuf.obj
 0002:00009640       $unwind$?free_crt_array_internal@@YAXQEAPEBX_K@Z 0000000180023640     libucrt:inittime.obj
 0002:00009640       $unwind$??0_LocaleUpdate@@QEAA@QEAU__crt_locale_pointers@@@Z 0000000180023640     libucrt:mbscmp.obj
 0002:00009640       $unwind$??$common_lseek_nolock@_J@@YA_JH_JH@Z 0000000180023640     libucrt:lseek.obj
 0002:00009640       $unwind$__vcrt_getptd_noexit 0000000180023640     libvcruntime:per_thread_data.obj
 0002:00009640       $unwind$__acrt_InitializeCriticalSectionEx 0000000180023640     libucrt:winapi_thunks.obj
 0002:00009640       $unwind$?type_case_n@?$output_processor@DV?$string_output_adapter@D@__crt_stdio_output@@V?$format_validation_base@DV?$string_output_adapter@D@__crt_stdio_output@@@2@@__crt_stdio_output@@AEAA_NXZ 0000000180023640     libucrt:output.obj
 0002:00009640       $unwind$__acrt_execute_initializers 0000000180023640     libucrt:shared_initialization.obj
 0002:00009640       $unwind$__acrt_stdio_flush_nolock 0000000180023640     libucrt:fflush.obj
 0002:00009640       $unwind$_exception_enabled 0000000180023640     libucrt:libm_error.obj
 0002:00009640       $unwind$?type_case_n@?$output_processor@DV?$stream_output_adapter@D@__crt_stdio_output@@V?$standard_base@DV?$stream_output_adapter@D@__crt_stdio_output@@@2@@__crt_stdio_output@@AEAA_NXZ 0000000180023640     libucrt:output.obj
 0002:00009640       $unwind$_DllMainCRTStartup 0000000180023640     LIBCMT:dll_dllmain.obj
 0002:00009640       $unwind$memcpy_s           0000000180023640     libucrt:cfout.obj
 0002:00009650       $unwind$__report_securityfailure 0000000180023650     LIBCMT:gs_report.obj
 0002:00009658       $unwind$__report_gsfailure 0000000180023658     LIBCMT:gs_report.obj
 0002:00009660       $unwind$capture_current_context 0000000180023660     LIBCMT:gs_report.obj
 0002:0000966c       $unwind$capture_previous_context 000000018002366c     LIBCMT:gs_report.obj
 0002:00009678       $unwind$__isa_available_init 0000000180023678     LIBCMT:_cpu_disp_.obj
 0002:0000968c       $unwind$__scrt_fastfail    000000018002368c     LIBCMT:utility_desktop.obj
 0002:0000969c       $unwind$__security_init_cookie 000000018002369c     LIBCMT:gs_support.obj
 0002:000096a8       $xdatasym                  00000001800236a8     LIBCMT:_guard_dispatch_.obj
 0002:000096ac       $unwind$strstr             00000001800236ac     libvcruntime:strstr.obj
 0002:000096bc       $unwind$_CxxThrowException 00000001800236bc     libvcruntime:throw.obj
 0002:000096cc       $unwind$__C_specific_handler 00000001800236cc     libvcruntime:_riscchandler_.obj
 0002:000096e8       $xdatasym                  00000001800236e8     libvcruntime:memset.obj
 0002:000096f0       $xdatasym                  00000001800236f0     libvcruntime:memcpy.obj
 0002:000096f4       $unwind$__acrt_initialize_winapi_thunks 00000001800236f4     libucrt:winapi_thunks.obj
 0002:000096f4       $unwind$__vcrt_initialize_winapi_thunks 00000001800236f4     libvcruntime:winapi_downlevel.obj
 0002:000096fc       $unwind$__acrt_stdio_end_temporary_buffering_nolock 00000001800236fc     libucrt:_sftbuf.obj
 0002:000096fc       $unwind$__vcrt_uninitialize_winapi_thunks 00000001800236fc     libvcruntime:winapi_downlevel.obj
 0002:00009704       $unwind$?try_get_function@@YAPEAXW4function_id@?A0x89697e75@@QEBDQEBW4module_id@2@2@Z 0000000180023704     libvcruntime:winapi_downlevel.obj
 0002:00009704       $unwind$?try_get_function@@YAPEAXW4function_id@?A0x391cf84c@@QEBDQEBW4module_id@2@2@Z 0000000180023704     libucrt:winapi_thunks.obj
 0002:00009704       $unwind$?IsInExceptionSpec@@YAEPEAUEHExceptionRecord@@PEBU_s_ESTypeList@@@Z 0000000180023704     libvcruntime:frame.obj
 0002:00009704       $unwind$??R<lambda_f03950bc5685219e0bcd2087efbe011e>@@QEBAHXZ 0000000180023704     libucrt:onexit.obj
 0002:00009720       $xdatasym                  0000000180023720     libvcruntime:_jmpuwind_.obj
 0002:00009734       $unwind$?_GetEstablisherFrame@@YAPEA_KPEA_KPEAU_xDISPATCHER_CONTEXT@@PEBU_s_FuncInfo@@0@Z 0000000180023734     libvcruntime:risctrnsctrl.obj
 0002:0000974c       $unwind$?__FrameUnwindToEmptyState@@YAXPEA_KPEAU_xDISPATCHER_CONTEXT@@PEBU_s_FuncInfo@@@Z 000000018002374c     libvcruntime:risctrnsctrl.obj
 0002:00009760       $unwind$_CallSETranslator  0000000180023760     libvcruntime:risctrnsctrl.obj
 0002:00009780       $unwind$_CallSETranslator$filt$0 0000000180023780     libvcruntime:risctrnsctrl.obj
 0002:0000978c       $unwind$??$parse_command_line@D@@YAXPEADPEAPEAD0PEA_K2@Z 000000018002378c     libucrt:argv_parsing.obj
 0002:0000978c       $unwind$?write_string_impl@?$output_adapter_common@DV?$stream_output_adapter@D@__crt_stdio_output@@@__crt_stdio_output@@IEBAXQEBDHQEAHAEAV__crt_deferred_errno_cache@@@Z 000000018002378c     libucrt:output.obj
 0002:0000978c       $unwind$?_GetRangeOfTrysToCheck@@YAPEBU_s_TryBlockMapEntry@@PEA_KPEBU_s_FuncInfo@@HHPEAI2PEAU_xDISPATCHER_CONTEXT@@@Z 000000018002378c     libvcruntime:risctrnsctrl.obj
 0002:0000978c       $unwind$??R<lambda_a10e4b102d4a2c3aac6f4f48bbdf488f>@@QEBAHXZ 000000018002378c     libucrt:onexit.obj
 0002:000097a8       $unwind$_UnwindNestedFrames 00000001800237a8     libvcruntime:risctrnsctrl.obj
 0002:000097bc       $unwind$__CxxFrameHandler3 00000001800237bc     libvcruntime:risctrnsctrl.obj
 0002:000097cc       $unwind$__CxxCallCatchBlock 00000001800237cc     libvcruntime:frame.obj
 0002:00009808       $unwind$__CxxCallCatchBlock$fin$1 0000000180023808     libvcruntime:frame.obj
 0002:00009814       $unwind$__BuildCatchObject 0000000180023814     libvcruntime:frame.obj
 0002:00009840       $unwind$__GSHandlerCheck_EH 0000000180023840     LIBCMT:gshandlereh.obj
 0002:00009840       $unwind$__acrt_initialize_stdio 0000000180023840     libucrt:_file.obj
 0002:00009840       $unwind$__TypeMatch        0000000180023840     libvcruntime:frame.obj
 0002:00009858       $unwind$__InternalCxxFrameHandler 0000000180023858     libvcruntime:frame.obj
 0002:00009870       $unwind$__FrameUnwindToState 0000000180023870     libvcruntime:frame.obj
 0002:000098bc       $unwind$?FindHandler@@YAXPEAUEHExceptionRecord@@PEA_KPEAU_CONTEXT@@PEAU_xDISPATCHER_CONTEXT@@PEBU_s_FuncInfo@@EH1@Z 00000001800238bc     libvcruntime:frame.obj
 0002:000098dc       $unwind$?CatchIt@@YAXPEAUEHExceptionRecord@@PEA_KPEAU_CONTEXT@@PEAU_xDISPATCHER_CONTEXT@@PEBU_s_FuncInfo@@PEBU_s_HandlerType@@PEBU_s_CatchableType@@PEBU_s_TryBlockMapEntry@@H1EE@Z 00000001800238dc     libvcruntime:frame.obj
 0002:000098f4       $unwind$?FindHandlerForForeignException@@YAXPEAUEHExceptionRecord@@PEA_KPEAU_CONTEXT@@PEAU_xDISPATCHER_CONTEXT@@PEBU_s_FuncInfo@@HH1@Z 00000001800238f4     libvcruntime:frame.obj
 0002:0000990c       $unwind$__BuildCatchObjectHelper 000000018002390c     libvcruntime:frame.obj
 0002:00009950       $xdatasym                  0000000180023950     libvcruntime:handlers.obj
 0002:00009958       $unwind$__DestructExceptionObject 0000000180023958     libvcruntime:ehhelpers.obj
 0002:00009978       $unwind$__acrt_call_reportfault 0000000180023978     libucrt:invalid_parameter.obj
 0002:00009998       $unwind$_invalid_parameter 0000000180023998     libucrt:invalid_parameter.obj
 0002:00009998       $unwind$??$__acrt_convert_wcs_mbs@_WD$$A6A_KPEADPEB_W_KPEAU__crt_locale_pointers@@@ZU__crt_win32_buffer_no_resizing@@@@YAHQEB_WAEAV?$__crt_win32_buffer@DU__crt_win32_buffer_no_resizing@@@@A6A_KPEADPEB_W_KPEAU__crt_locale_pointers@@@Z5@Z 0000000180023998     libucrt:findnextfilea.obj
 0002:000099ac       $unwind$?common_exit@@YAXHW4_crt_exit_cleanup_mode@@W4_crt_exit_return_mode@@@Z 00000001800239ac     libucrt:exit.obj
 0002:000099b8       $unwind$??R<lambda_6e4b09c48022b2350581041d5f6b0c4c>@@QEBA@XZ 00000001800239b8     libucrt:exit.obj
 0002:000099d8       $unwind$??$?RV<lambda_d80eeec6fff315bfe5c115232f3240e3>@@AEAV<lambda_6e4b09c48022b2350581041d5f6b0c4c>@@V<lambda_2358e3775559c9db80273638284d5e45>@@@?$__crt_seh_guarded_call@X@@QEAAX$$QEAV<lambda_d80eeec6fff315bfe5c115232f3240e3>@@AEAV<lambda_6e4b09c48022b2350581041d5f6b0c4c>@@$$QEAV<lambda_2358e3775559c9db80273638284d5e45>@@@Z 00000001800239d8     libucrt:exit.obj
 0002:000099fc       $unwind$_toupper_l         00000001800239fc     libucrt:tolower_toupper.obj
 0002:000099fc       $unwind$_tolower_l         00000001800239fc     libucrt:tolower_toupper.obj
 0002:00009a0c       $unwind$__stdio_common_vfprintf 0000000180023a0c     libucrt:output.obj
 0002:00009a14       $unwind$__stdio_common_vsnprintf_s 0000000180023a14     libucrt:output.obj
 0002:00009a2c       $unwind$?process@?$output_processor@DV?$stream_output_adapter@D@__crt_stdio_output@@V?$standard_base@DV?$stream_output_adapter@D@__crt_stdio_output@@@2@@__crt_stdio_output@@QEAAHXZ 0000000180023a2c     libucrt:output.obj
 0002:00009a3c       $unwind$?parse_int_from_format_string@?$output_processor@DV?$string_output_adapter@D@__crt_stdio_output@@V?$format_validation_base@DV?$string_output_adapter@D@__crt_stdio_output@@@2@@__crt_stdio_output@@AEAA_NQEAH@Z 0000000180023a3c     libucrt:output.obj
 0002:00009a3c       $unwind$?parse_int_from_format_string@?$output_processor@DV?$stream_output_adapter@D@__crt_stdio_output@@V?$standard_base@DV?$stream_output_adapter@D@__crt_stdio_output@@@2@@__crt_stdio_output@@AEAA_NQEAH@Z 0000000180023a3c     libucrt:output.obj
 0002:00009a50       $unwind$?state_case_type@?$output_processor@DV?$string_output_adapter@D@__crt_stdio_output@@V?$format_validation_base@DV?$string_output_adapter@D@__crt_stdio_output@@@2@@__crt_stdio_output@@AEAA_NXZ 0000000180023a50     libucrt:output.obj
 0002:00009a50       $unwind$?state_case_type@?$output_processor@DV?$stream_output_adapter@D@__crt_stdio_output@@V?$standard_base@DV?$stream_output_adapter@D@__crt_stdio_output@@@2@@__crt_stdio_output@@AEAA_NXZ 0000000180023a50     libucrt:output.obj
 0002:00009a68       $unwind$?type_case_a@?$output_processor@DV?$stream_output_adapter@D@__crt_stdio_output@@V?$standard_base@DV?$stream_output_adapter@D@__crt_stdio_output@@@2@@__crt_stdio_output@@AEAA_NXZ 0000000180023a68     libucrt:output.obj
 0002:00009a68       $unwind$?type_case_a@?$output_processor@DV?$string_output_adapter@D@__crt_stdio_output@@V?$format_validation_base@DV?$string_output_adapter@D@__crt_stdio_output@@@2@@__crt_stdio_output@@AEAA_NXZ 0000000180023a68     libucrt:output.obj
 0002:00009a74       $unwind$?type_case_integer@?$output_processor@DV?$stream_output_adapter@D@__crt_stdio_output@@V?$standard_base@DV?$stream_output_adapter@D@__crt_stdio_output@@@2@@__crt_stdio_output@@AEAA_NI_N@Z 0000000180023a74     libucrt:output.obj
 0002:00009a74       $unwind$?type_case_integer@?$output_processor@DV?$string_output_adapter@D@__crt_stdio_output@@V?$format_validation_base@DV?$string_output_adapter@D@__crt_stdio_output@@@2@@__crt_stdio_output@@AEAA_NI_N@Z 0000000180023a74     libucrt:output.obj
 0002:00009a8c       $unwind$?write_stored_string_tchar@?$output_processor@DV?$stream_output_adapter@D@__crt_stdio_output@@V?$standard_base@DV?$stream_output_adapter@D@__crt_stdio_output@@@2@@__crt_stdio_output@@AEAA_ND@Z 0000000180023a8c     libucrt:output.obj
 0002:00009a8c       $unwind$?write_stored_string_tchar@?$output_processor@DV?$string_output_adapter@D@__crt_stdio_output@@V?$format_validation_base@DV?$string_output_adapter@D@__crt_stdio_output@@@2@@__crt_stdio_output@@AEAA_ND@Z 0000000180023a8c     libucrt:output.obj
 0002:00009aa4       $unwind$??R<lambda_a31071773b9a94e445cbd5d04ef99106>@@QEBAHXZ 0000000180023aa4     libucrt:output.obj
 0002:00009ac4       $unwind$?write_string@?$string_output_adapter@D@__crt_stdio_output@@QEBAXQEBDHQEAHAEAV__crt_deferred_errno_cache@@@Z 0000000180023ac4     libucrt:output.obj
 0002:00009ac4       $unwind$??$write_multiple_characters@V?$stream_output_adapter@D@__crt_stdio_output@@D@__crt_stdio_output@@YAXAEBV?$stream_output_adapter@D@0@DHQEAH@Z 0000000180023ac4     libucrt:output.obj
 0002:00009adc       $unwind$??$common_vsprintf@Vformat_validation_base@__crt_stdio_output@@D@@YAH_KQEAD0QEBDQEAU__crt_locale_pointers@@1@Z 0000000180023adc     libucrt:output.obj
 0002:00009afc       $unwind$??$write_multiple_characters@V?$string_output_adapter@D@__crt_stdio_output@@D@__crt_stdio_output@@YAXAEBV?$string_output_adapter@D@0@DHQEAH@Z 0000000180023afc     libucrt:output.obj
 0002:00009b08       $unwind$??$type_case_integer_parse_into_buffer@I@?$output_processor@DV?$stream_output_adapter@D@__crt_stdio_output@@V?$standard_base@DV?$stream_output_adapter@D@__crt_stdio_output@@@2@@__crt_stdio_output@@AEAAXII_N@Z 0000000180023b08     libucrt:output.obj
 0002:00009b08       $unwind$??$type_case_integer_parse_into_buffer@_K@?$output_processor@DV?$string_output_adapter@D@__crt_stdio_output@@V?$format_validation_base@DV?$string_output_adapter@D@__crt_stdio_output@@@2@@__crt_stdio_output@@AEAAX_KI_N@Z 0000000180023b08     libucrt:output.obj
 0002:00009b08       $unwind$??$type_case_integer_parse_into_buffer@_K@?$output_processor@DV?$stream_output_adapter@D@__crt_stdio_output@@V?$standard_base@DV?$stream_output_adapter@D@__crt_stdio_output@@@2@@__crt_stdio_output@@AEAAX_KI_N@Z 0000000180023b08     libucrt:output.obj
 0002:00009b08       $unwind$??$type_case_integer_parse_into_buffer@I@?$output_processor@DV?$string_output_adapter@D@__crt_stdio_output@@V?$format_validation_base@DV?$string_output_adapter@D@__crt_stdio_output@@@2@@__crt_stdio_output@@AEAAXII_N@Z 0000000180023b08     libucrt:output.obj
 0002:00009b10       $unwind$??$?RV<lambda_a62c933ada0517137acf5807a1eeac1f>@@AEAV<lambda_a31071773b9a94e445cbd5d04ef99106>@@V<lambda_56065050dbf3ada7e59a83db45153de3>@@@?$__crt_seh_guarded_call@H@@QEAAH$$QEAV<lambda_a62c933ada0517137acf5807a1eeac1f>@@AEAV<lambda_a31071773b9a94e445cbd5d04ef99106>@@$$QEAV<lambda_56065050dbf3ada7e59a83db45153de3>@@@Z 0000000180023b10     libucrt:output.obj
 0002:00009b34       $unwind$?process@?$output_processor@DV?$string_output_adapter@D@__crt_stdio_output@@V?$format_validation_base@DV?$string_output_adapter@D@__crt_stdio_output@@@2@@__crt_stdio_output@@QEAAHXZ 0000000180023b34     libucrt:output.obj
 0002:00009b48       $unwind$_mbsupr_s_l        0000000180023b48     libucrt:mbsupr.obj
 0002:00009b58       $unwind$??$parse_integer@KV?$c_string_character_source@D@__crt_strtox@@@__crt_strtox@@YAKQEAU__crt_locale_pointers@@V?$c_string_character_source@D@0@H_N@Z 0000000180023b58     libucrt:strtox.obj
 0002:00009b70       $unwind$_query_new_handler 0000000180023b70     libucrt:new_handler.obj
 0002:00009b90       $unwind$_configure_narrow_argv 0000000180023b90     libucrt:argv_parsing.obj
 0002:00009ba4       $unwind$??$free_environment@D@@YAXQEAPEAD@Z 0000000180023ba4     libucrt:environment_initialization.obj
 0002:00009ba4       $unwind$??$free_environment@_W@@YAXQEAPEA_W@Z 0000000180023ba4     libucrt:environment_initialization.obj
 0002:00009bb0       $unwind$??$create_environment@D@@YAQEAPEADQEAD@Z 0000000180023bb0     libucrt:environment_initialization.obj
 0002:00009bc8       $unwind$_register_onexit_function 0000000180023bc8     libucrt:onexit.obj
 0002:00009bd0       $unwind$_execute_onexit_table 0000000180023bd0     libucrt:onexit.obj
 0002:00009bd8       $unwind$??$?RV<lambda_8369fcb7c4df1e85de37618bd2b85f07>@@AEAV<lambda_a10e4b102d4a2c3aac6f4f48bbdf488f>@@V<lambda_5b7707bd6d7a0c4713179f36c7fd995d>@@@?$__crt_seh_guarded_call@H@@QEAAH$$QEAV<lambda_8369fcb7c4df1e85de37618bd2b85f07>@@AEAV<lambda_a10e4b102d4a2c3aac6f4f48bbdf488f>@@$$QEAV<lambda_5b7707bd6d7a0c4713179f36c7fd995d>@@@Z 0000000180023bd8     libucrt:onexit.obj
 0002:00009bfc       $unwind$??$?RV<lambda_7777bce6b2f8c936911f934f8298dc43>@@AEAV<lambda_f03950bc5685219e0bcd2087efbe011e>@@V<lambda_3883c3dff614d5e0c5f61bb1ac94921c>@@@?$__crt_seh_guarded_call@H@@QEAAH$$QEAV<lambda_7777bce6b2f8c936911f934f8298dc43>@@AEAV<lambda_f03950bc5685219e0bcd2087efbe011e>@@$$QEAV<lambda_3883c3dff614d5e0c5f61bb1ac94921c>@@@Z 0000000180023bfc     libucrt:onexit.obj
 0002:00009c20       $unwind$terminate          0000000180023c20     libucrt:terminate.obj
 0002:00009c40       $xdatasym                  0000000180023c40     libucrt:strncmp.obj
 0002:00009c44       $unwind$?destroy_fls@@YAXPEAX@Z 0000000180023c44     libucrt:per_thread_data.obj
 0002:00009c44       $unwind$__acrt_locale_free_numeric 0000000180023c44     libucrt:initnum.obj
 0002:00009c44       $unwind$_free_base         0000000180023c44     libucrt:free_base.obj
 0002:00009c44       $unwind$__acrt_locale_free_lc_time_if_unreferenced 0000000180023c44     libucrt:locale_refcounting.obj
 0002:00009c4c       $unwind$?construct_ptd_array@@YAXQEAU__acrt_ptd@@@Z 0000000180023c4c     libucrt:per_thread_data.obj
 0002:00009c54       $unwind$?destroy_ptd_array@@YAXQEAU__acrt_ptd@@@Z 0000000180023c54     libucrt:per_thread_data.obj
 0002:00009c5c       $unwind$??$?RV<lambda_0ae27a3a962d80f24befdcbee591983d>@@AEAV<lambda_8d0ee55de4b1038c4002e0adecdf1839>@@V<lambda_dc504788e8f1664fe9b84e20bfb512f2>@@@?$__crt_seh_guarded_call@X@@QEAAX$$QEAV<lambda_0ae27a3a962d80f24befdcbee591983d>@@AEAV<lambda_8d0ee55de4b1038c4002e0adecdf1839>@@$$QEAV<lambda_dc504788e8f1664fe9b84e20bfb512f2>@@@Z 0000000180023c5c     libucrt:per_thread_data.obj
 0002:00009c80       $unwind$??$?RV<lambda_aa87e3671a710a21b5dc78c0bdf72e11>@@AEAV<lambda_92619d2358a28f41a33ba319515a20b9>@@V<lambda_6992ecaafeb10aed2b74cb1fae11a551>@@@?$__crt_seh_guarded_call@X@@QEAAX$$QEAV<lambda_aa87e3671a710a21b5dc78c0bdf72e11>@@AEAV<lambda_92619d2358a28f41a33ba319515a20b9>@@$$QEAV<lambda_6992ecaafeb10aed2b74cb1fae11a551>@@@Z 0000000180023c80     libucrt:per_thread_data.obj
 0002:00009ca4       $unwind$??$?RV<lambda_f2e299630e499de9f9a165e60fcd3db5>@@AEAV<lambda_2ae9d31cdba2644fcbeaf08da7c24588>@@V<lambda_40d01ff24d0e7b3814fdbdcee8eab3c7>@@@?$__crt_seh_guarded_call@X@@QEAAX$$QEAV<lambda_f2e299630e499de9f9a165e60fcd3db5>@@AEAV<lambda_2ae9d31cdba2644fcbeaf08da7c24588>@@$$QEAV<lambda_40d01ff24d0e7b3814fdbdcee8eab3c7>@@@Z 0000000180023ca4     libucrt:per_thread_data.obj
 0002:00009cc8       $unwind$??$?RV<lambda_2d41944a1d46af3157314b8a01080d33>@@AEAV<lambda_8f455de75cd7d7f24b4096f044d8b9e6>@@V<lambda_aa500f224e6afead328df44964fe2772>@@@?$__crt_seh_guarded_call@X@@QEAAX$$QEAV<lambda_2d41944a1d46af3157314b8a01080d33>@@AEAV<lambda_8f455de75cd7d7f24b4096f044d8b9e6>@@$$QEAV<lambda_aa500f224e6afead328df44964fe2772>@@@Z 0000000180023cc8     libucrt:per_thread_data.obj
 0002:00009cec       $unwind$__acrt_uninitialize_locale 0000000180023cec     libucrt:wsetlocale.obj
 0002:00009cec       $unwind$__acrt_get_sigabrt_handler 0000000180023cec     libucrt:signal.obj
 0002:00009cf4       $unwind$??$?RV<lambda_410d79af7f07d98d83a3f525b3859a53>@@AEAV<lambda_3e16ef9562a7dcce91392c22ab16ea36>@@V<lambda_38119f0e861e05405d8a144b9b982f0a>@@@?$__crt_seh_guarded_call@X@@QEAAX$$QEAV<lambda_410d79af7f07d98d83a3f525b3859a53>@@AEAV<lambda_3e16ef9562a7dcce91392c22ab16ea36>@@$$QEAV<lambda_38119f0e861e05405d8a144b9b982f0a>@@@Z 0000000180023cf4     libucrt:wsetlocale.obj
 0002:00009d1c       $unwind$?getSystemCP@@YAHH@Z 0000000180023d1c     libucrt:mbctype.obj
 0002:00009d1c       $unwind$isdigit            0000000180023d1c     libucrt:_ctype.obj
 0002:00009d1c       $unwind$_isleadbyte_l      0000000180023d1c     libucrt:_wctype.obj
 0002:00009d1c       $unwind$__dcrt_lowio_ensure_console_output_initialized 0000000180023d1c     libucrt:initcon.obj
 0002:00009d24       $unwind$_isctype_l         0000000180023d24     libucrt:isctype.obj
 0002:00009d3c       $unwind$__acrt_LCMapStringA 0000000180023d3c     libucrt:lcmapstringa.obj
 0002:00009d4c       $unwind$?__acrt_LCMapStringA_stat@@YAHPEAU__crt_locale_pointers@@PEB_WKPEBDHPEADHHH@Z 0000000180023d4c     libucrt:lcmapstringa.obj
 0002:00009d74       $unwind$_mbtowc_l          0000000180023d74     libucrt:mbtowc.obj
 0002:00009d74       $unwind$?fp_format_e@@YAHQEBNQEAD_K12H_NIQEAU__crt_locale_pointers@@@Z 0000000180023d74     libucrt:cvt.obj
 0002:00009d74       $unwind$__acrt_LCMapStringEx 0000000180023d74     libucrt:winapi_thunks.obj
 0002:00009d88       $unwind$_fcloseall         0000000180023d88     libucrt:closeall.obj
 0002:00009dac       $unwind$?common_flush_all@@YAH_N@Z 0000000180023dac     libucrt:fflush.obj
 0002:00009db4       $unwind$??$?RV<lambda_842d9ff0dc9ef11c61343bbaebe7f885>@@AEAV<lambda_c5860995281e5c4ce005b3de8f5874ee>@@V<lambda_d90129c13df834fdcbf8d2b88dafcf2d>@@@?$__crt_seh_guarded_call@X@@QEAAX$$QEAV<lambda_842d9ff0dc9ef11c61343bbaebe7f885>@@AEAV<lambda_c5860995281e5c4ce005b3de8f5874ee>@@$$QEAV<lambda_d90129c13df834fdcbf8d2b88dafcf2d>@@@Z 0000000180023db4     libucrt:fflush.obj
 0002:00009dd8       $unwind$??$?RV<lambda_886d6c58226a84441f68b9f2b8217b83>@@AEAV<lambda_ab61a845afdef5b7c387490eaf3616ee>@@V<lambda_f7f22ab5edc0698d5f6905b0d3f44752>@@@?$__crt_seh_guarded_call@X@@QEAAX$$QEAV<lambda_886d6c58226a84441f68b9f2b8217b83>@@AEAV<lambda_ab61a845afdef5b7c387490eaf3616ee>@@$$QEAV<lambda_f7f22ab5edc0698d5f6905b0d3f44752>@@@Z 0000000180023dd8     libucrt:fflush.obj
 0002:00009e00       $unwind$__acrt_initialize_lowio 0000000180023e00     libucrt:ioinit.obj
 0002:00009e20       $unwind$?initialize_inherited_file_handles_nolock@@YAXXZ 0000000180023e20     libucrt:ioinit.obj
 0002:00009e3c       $unwind$_wctomb_s_l        0000000180023e3c     libucrt:wctomb.obj
 0002:00009e4c       $unwind$__acrt_fp_format   0000000180023e4c     libucrt:cvt.obj
 0002:00009e60       $unwind$?fp_format_nan_or_infinity@@YAHW4__acrt_fp_class@@_NPEAD_K1@Z 0000000180023e60     libucrt:cvt.obj
 0002:00009e74       $unwind$?fp_format_e_internal@@YAHQEAD_KH_NIQEAU_strflt@@2QEAU__crt_locale_pointers@@@Z 0000000180023e74     libucrt:cvt.obj
 0002:00009e8c       $unwind$?fp_format_a@@YAHQEBNPEAD_KQEAD2H_NIQEAU__crt_locale_pointers@@@Z 0000000180023e8c     libucrt:cvt.obj
 0002:00009ea8       $unwind$__dcrt_get_narrow_environment_from_os 0000000180023ea8     libucrt:get_environment_from_os.obj
 0002:00009ea8       $unwind$?fp_format_f_internal@@YAHQEAD_KHQEAU_strflt@@_NQEAU__crt_locale_pointers@@@Z 0000000180023ea8     libucrt:cvt.obj
 0002:00009ec0       $unwind$?fp_format_g@@YAHQEBNQEAD_K12H_NIQEAU__crt_locale_pointers@@@Z 0000000180023ec0     libucrt:cvt.obj
 0002:00009ed4       $unwind$??$common_expand_argv_wildcards@D@@YAHQEAPEADQEAPEAPEAD@Z 0000000180023ed4     libucrt:argv_wildcards.obj
 0002:00009eec       $unwind$??$copy_and_add_argument_to_buffer@D@@YAHQEBD0_KAEAV?$argument_list@D@?A0x5f5c8891@@@Z 0000000180023eec     libucrt:argv_wildcards.obj
 0002:00009f08       $unwind$??$expand_argument_wildcards@D@@YAHQEAD0AEAV?$argument_list@D@?A0x5f5c8891@@@Z 0000000180023f08     libucrt:argv_wildcards.obj
 0002:00009f28       $unwind$__acrt_GetModuleFileNameA 0000000180023f28     libucrt:getmodulefilenamea.obj
 0002:00009f40       $unwind$_setmbcp_nolock    0000000180023f40     libucrt:mbctype.obj
 0002:00009f60       $unwind$?update_thread_multibyte_data_internal@@YAPEAU__crt_multibyte_data@@QEAU__acrt_ptd@@QEAPEAU1@@Z 0000000180023f60     libucrt:mbctype.obj
 0002:00009f88       $unwind$?setmbcp_internal@@YAHH_NQEAU__acrt_ptd@@QEAPEAU__crt_multibyte_data@@@Z 0000000180023f88     libucrt:mbctype.obj
 0002:00009f98       $unwind$?setSBUpLow@@YAXPEAU__crt_multibyte_data@@@Z 0000000180023f98     libucrt:mbctype.obj
 0002:00009fb4       $unwind$??$?RV<lambda_efdfa57d1f175319df784efa44bb7b81>@@AEAV<lambda_5f0a4c1567f8adc6734073e5d1e1b35c>@@V<lambda_2e8a7d3640ea6ccb4c2413664c2db6fd>@@@?$__crt_seh_guarded_call@X@@QEAAX$$QEAV<lambda_efdfa57d1f175319df784efa44bb7b81>@@AEAV<lambda_5f0a4c1567f8adc6734073e5d1e1b35c>@@$$QEAV<lambda_2e8a7d3640ea6ccb4c2413664c2db6fd>@@@Z 0000000180023fb4     libucrt:mbctype.obj
 0002:00009fd8       $unwind$__GSHandlerCheckCommon 0000000180023fd8     LIBCMT:_gshandler_.obj
 0002:00009fd8       $unwind$__acrt_WideCharToMultiByte 0000000180023fd8     libucrt:widechartomultibyte.obj
 0002:00009fe0       $unwind$raise              0000000180023fe0     libucrt:signal.obj
 0002:0000a01c       $unwind$??$?RV<lambda_450d765d439847d4c735a33c368b5fc0>@@AEAV<lambda_44731a7d0e6d81c3e6aa82d741081786>@@V<lambda_601a2a7da3b7a96e9554ac7215c4b07c>@@@?$__crt_seh_guarded_call@P6AXH@Z@@QEAAP6AXH@Z$$QEAV<lambda_450d765d439847d4c735a33c368b5fc0>@@AEAV<lambda_44731a7d0e6d81c3e6aa82d741081786>@@$$QEAV<lambda_601a2a7da3b7a96e9554ac7215c4b07c>@@@Z 000000018002401c     libucrt:signal.obj
 0002:0000a040       $unwind$__acrt_update_thread_locale_data 0000000180024040     libucrt:locale_refcounting.obj
 0002:0000a064       $unwind$__acrt_locale_free_monetary 0000000180024064     libucrt:initmon.obj
 0002:0000a06c       $unwind$__acrt_locale_free_time 000000018002406c     libucrt:inittime.obj
 0002:0000a07c       $unwind$__acrt_GetStringTypeA 000000018002407c     libucrt:getstringtypea.obj
 0002:0000a0a4       $unwind$?GetTableIndexFromLocaleName@@YAHPEB_W@Z 00000001800240a4     libucrt:lcidtoname_downlevel.obj
 0002:0000a0bc       $unwind$fclose             00000001800240bc     libucrt:fclose.obj
 0002:0000a0e0       $unwind$_commit            00000001800240e0     libucrt:commit.obj
 0002:0000a0e0       $unwind$_close             00000001800240e0     libucrt:close.obj
 0002:0000a0e8       $unwind$??$?RV<lambda_a37b2b86f63e897a80ea819b0eb08c01>@@AEAV<lambda_38ce7e780aa69e748d6df282ebc68efe>@@V<lambda_99fb1378e971ab6e7edea83e3a7a83a2>@@@?$__crt_seh_guarded_call@H@@QEAAH$$QEAV<lambda_a37b2b86f63e897a80ea819b0eb08c01>@@AEAV<lambda_38ce7e780aa69e748d6df282ebc68efe>@@$$QEAV<lambda_99fb1378e971ab6e7edea83e3a7a83a2>@@@Z 00000001800240e8     libucrt:commit.obj
 0002:0000a10c       $unwind$_write             000000018002410c     libucrt:write.obj
 0002:0000a13c       $unwind$_write_nolock      000000018002413c     libucrt:write.obj
 0002:0000a154       $unwind$?write_double_translated_ansi_nolock@@YA?AUwrite_result@?A0x17268360@@HQEBDI@Z 0000000180024154     libucrt:write.obj
 0002:0000a174       $unwind$?write_text_ansi_nolock@@YA?AUwrite_result@?A0x17268360@@HQEBDI@Z 0000000180024174     libucrt:write.obj
 0002:0000a174       $unwind$?write_text_utf16le_nolock@@YA?AUwrite_result@?A0x17268360@@HQEBDI@Z 0000000180024174     libucrt:write.obj
 0002:0000a194       $unwind$?write_text_utf8_nolock@@YA?AUwrite_result@?A0x17268360@@HQEBDI@Z 0000000180024194     libucrt:write.obj
 0002:0000a1b8       $unwind$__acrt_lowio_destroy_handle_array 00000001800241b8     libucrt:osfinfo.obj
 0002:0000a1c8       $unwind$__acrt_lowio_ensure_fh_exists 00000001800241c8     libucrt:osfinfo.obj
 0002:0000a1f4       $unwind$?__mbsrtowcs_utf8@__crt_mbstring@@YA_KPEA_WPEAPEBD_KPEAU_Mbstatet@@@Z 00000001800241f4     libucrt:mbrtowc.obj
 0002:0000a20c       $unwind$__acrt_fltout      000000018002420c     libucrt:cfout.obj
 0002:0000a22c       $unwind$?divide@__crt_strtox@@YA_KAEAUbig_integer@1@AEBU21@@Z 000000018002422c     libucrt:cfout.obj
 0002:0000a238       $chain$0$?divide@__crt_strtox@@YA_KAEAUbig_integer@1@AEBU21@@Z 0000000180024238     libucrt:cfout.obj
 0002:0000a24c       $chain$6$?divide@__crt_strtox@@YA_KAEAUbig_integer@1@AEBU21@@Z 000000018002424c     libucrt:cfout.obj
 0002:0000a270       $chain$7$?divide@__crt_strtox@@YA_KAEAUbig_integer@1@AEBU21@@Z 0000000180024270     libucrt:cfout.obj
 0002:0000a284       $chain$8$?divide@__crt_strtox@@YA_KAEAUbig_integer@1@AEBU21@@Z 0000000180024284     libucrt:cfout.obj
 0002:0000a294       $unwind$??$write_buffer_nolock@D@@YA_NDV__crt_stdio_stream@@@Z 0000000180024294     libucrt:_flsbuf.obj
 0002:0000a2a4       $unwind$qsort              00000001800242a4     libucrt:qsort.obj
 0002:0000a2bc       $chain$4$qsort             00000001800242bc     libucrt:qsort.obj
 0002:0000a2e0       $chain$5$qsort             00000001800242e0     libucrt:qsort.obj
 0002:0000a2f0       $unwind$strpbrk            00000001800242f0     libucrt:strpbrk.obj
 0002:0000a300       $unwind$fallbackMethod     0000000180024300     libucrt:strpbrk.obj
 0002:0000a310       $unwind$__acrt_FindFirstFileExA 0000000180024310     libucrt:findfirstfileexa.obj
 0002:0000a320       $unwind$??$__acrt_convert_wcs_mbs@D_W$$A6A_KPEA_WPEBD_KPEAU__crt_locale_pointers@@@ZU__crt_win32_buffer_internal_dynamic_resizing@@@@YAHQEBDAEAV?$__crt_win32_buffer@_WU__crt_win32_buffer_internal_dynamic_resizing@@@@A6A_KPEA_WPEBD_KPEAU__crt_locale_pointers@@@Z5@Z 0000000180024320     libucrt:findfirstfileexa.obj
 0002:0000a338       $unwind$__acrt_FindNextFileA 0000000180024338     libucrt:findnextfilea.obj
 0002:0000a354       $unwind$_mbsdec_l          0000000180024354     libucrt:mbsdec.obj
 0002:0000a360       $unwind$?_mbstowcs_l_helper@@YA_KPEA_WPEBD_KPEAU__crt_locale_pointers@@@Z 0000000180024360     libucrt:mbstowcs.obj
 0002:0000a378       $unwind$??$?RV<lambda_751a882b2c74d4b022dec766aa51a29a>@@AEAV<lambda_628dfdc04ba53c8bfc02c9951375f3f5>@@V<lambda_f6c7be5f7998530c34de24c7437d6b54>@@@?$__crt_seh_guarded_call@H@@QEAAH$$QEAV<lambda_751a882b2c74d4b022dec766aa51a29a>@@AEAV<lambda_628dfdc04ba53c8bfc02c9951375f3f5>@@$$QEAV<lambda_f6c7be5f7998530c34de24c7437d6b54>@@@Z 0000000180024378     libucrt:close.obj
 0002:0000a39c       $unwind$??$common_lseek@_J@@YA_JH_JH@Z 000000018002439c     libucrt:lseek.obj
 0002:0000a3cc       $unwind$_putwch_nolock     00000001800243cc     libucrt:putwch.obj
 0002:0000a3d4       $unwind$?__mbrtoc32_utf8@__crt_mbstring@@YA_KPEA_UPEBD_KPEAU_Mbstatet@@@Z 00000001800243d4     libucrt:mbrtoc32.obj
 0002:0000a3f0       $xdatasym                  00000001800243f0     libucrt:log10.obj
 0002:0000a3fc       $unwind$?_wcstombs_l_helper@@YA_KPEADPEB_W_KPEAU__crt_locale_pointers@@@Z 00000001800243fc     libucrt:wcstombs.obj
 0002:0000a420       $stateUnwindMap$?_wcstombs_l_helper@@YA_KPEADPEB_W_KPEAU__crt_locale_pointers@@@Z 0000000180024420     libucrt:wcstombs.obj
 0002:0000a428       $ip2state$?_wcstombs_l_helper@@YA_KPEADPEB_W_KPEAU__crt_locale_pointers@@@Z 0000000180024428     libucrt:wcstombs.obj
 0002:0000a440       $unwind$__dcrt_write_console 0000000180024440     libucrt:initcon.obj
 0002:0000a454       $unwind$__acrt_fenv_set_control 0000000180024454     libucrt:_fenvutils.obj
 0002:0000a464       $unwind$_call_matherr      0000000180024464     libucrt:libm_error.obj
 0002:0000a46c       $unwind$_handle_error      000000018002446c     libucrt:libm_error.obj
 0002:0000a48c       $unwind$__acrt_initialize_fma3 000000018002448c     libucrt:fma3_available.obj
 0002:0000a494       $unwind$_log_special_common 0000000180024494     libucrt:log_special.obj
 0002:0000a4a0       $unwind$?__wcsrtombs_utf8@__crt_mbstring@@YA_KPEADPEAPEB_W_KPEAU_Mbstatet@@@Z 00000001800244a0     libucrt:wcrtomb.obj
 0002:0000a4c0       $xdatasym                  00000001800244c0     libucrt:fpsr.obj
 0002:0000a4c8       $unwind$_raise_exc_ex      00000001800244c8     libucrt:fpexcept.obj
 0002:0000a4dc       $unwind$_ctrlfp            00000001800244dc     libucrt:fpctrl.obj
 0002:0000a504       $unwind$_IsNonwritableInCurrentImage 0000000180024504     LIBCMT:pesect.obj
 0002:0000a528       $xdatasym                  0000000180024528     LIBCMT:_chkstk_.obj
 0002:0000a530       $unwind$strchr             0000000180024530     libvcruntime:strchr.obj
 0002:0000a530       $unwind$strrchr            0000000180024530     libvcruntime:strrchr.obj
 0002:0000a538       $xdatasym                  0000000180024538     libvcruntime:memcmp.obj
 0002:0000a540       $xdatasym                  0000000180024540     libvcruntime:memchr.obj
 0002:0000a790       .edata                     0000000180024790     detection.exp
 0002:0000a7b8       rgpv                       00000001800247b8     detection.exp
 0002:0000a7bc       rgszName                   00000001800247bc     detection.exp
 0002:0000a7c0       rgwOrd                     00000001800247c0     detection.exp
 0002:0000a7c2       szName                     00000001800247c2     detection.exp
 0002:0000a7d1       $N00001                    00000001800247d1     detection.exp
 0002:0000ae22       .idata$6                   0000000180024e22     kernel32:KERNEL32.dll
 0002:0000aea8       .idata$6                   0000000180024ea8     user32:USER32.dll
 0002:0000b786       .idata$6                   0000000180025786     nw:nw.dll
 0002:0000b958       .idata$6                   0000000180025958     node:node.dll
 0003:00000030       ?__vcrt_flsindex@@3KA      0000000180026030     libvcruntime:per_thread_data.obj
 0003:00000148       ?errno_no_memory@@3HA      0000000180026148     libucrt:errno.obj
 0003:0000014c       ?doserrno_no_memory@@3KA   000000018002614c     libucrt:errno.obj
 0003:00000160       ?__acrt_flsindex@@3KA      0000000180026160     libucrt:per_thread_data.obj
 0003:00000320       ?__rgctypeflag@@3PADA      0000000180026320     libucrt:mbctype.obj
 0003:00000330       ?__rgcode_page_info@@3PAUcode_page_info@@A 0000000180026330     libucrt:mbctype.obj
 0003:00000650       _mbctypes                  0000000180026650     libucrt:mbctype.obj
 0003:00000760       _mbcasemaps                0000000180026760     libucrt:mbctype.obj
 0003:00000910       ?__dcrt_lowio_console_output_handle@@3PEAXEA 0000000180026910     libucrt:initcon.obj
 0003:00000920       ?dazSupported@?1??_ctrlfp@@9@9 0000000180026920     libucrt:fpctrl.obj
 0003:00000940       ?dummy@?1??ExtractDeviceInfo@@YAXPEAXPEAU_SP_DEVINFO_DATA@@PEADKPEAUListResultItem_t@@@Z@4HA 0000000180026940     detection_win.obj
 0003:00000950       _module                    0000000180026950     detection.obj
 0003:00000ad4       ?module_local_atexit_table_initialized@@3_NA 0000000180026ad4     LIBCMT:utility.obj
 0003:00000ae0       ?module_local_atexit_table@@3U_onexit_table_t@@A 0000000180026ae0     LIBCMT:utility.obj
 0003:00000af8       ?module_local_at_quick_exit_table@@3U_onexit_table_t@@A 0000000180026af8     LIBCMT:utility.obj
 0003:00000b10       ?is_initialized_as_dll@@3_NA 0000000180026b10     LIBCMT:utility.obj
 0003:00000b14       ?__proc_attached@@3HA      0000000180026b14     LIBCMT:dll_dllmain.obj
 0003:00000b20       GS_ExceptionRecord         0000000180026b20     LIBCMT:gs_report.obj
 0003:00000bc0       GS_ContextRecord           0000000180026bc0     LIBCMT:gs_report.obj
 0003:00001130       ?__vcrt_startup_thread_ptd@@3U__vcrt_ptd@@A 0000000180027130     libvcruntime:per_thread_data.obj
 0003:000011a8       __vcrt_lock_table          00000001800271a8     libvcruntime:locks.obj
 0003:000011d0       __vcrt_locks_initialized   00000001800271d0     libvcruntime:locks.obj
 0003:000011d8       ?module_handles@@3PAPEAUHINSTANCE__@@A 00000001800271d8     libvcruntime:winapi_downlevel.obj
 0003:000011f0       ?encoded_function_pointers@@3PAPEAXA 00000001800271f0     libvcruntime:winapi_downlevel.obj
 0003:00001260       ?heap@@3V_HeapManager@@A   0000000180027260     libvcruntime:undname.obj
 0003:00001290       ?__acrt_invalid_parameter_handler@@3V?$dual_state_global@P6AXPEB_W00I_K@Z@__crt_state_management@@A 0000000180027290     libucrt:invalid_parameter.obj
 0003:00001298       ?c_termination_complete@@3JA 0000000180027298     libucrt:exit.obj
 0003:000012a0       ?thread_local_exit_callback_func@@3P6AXPEAXK0@ZEA 00000001800272a0     libucrt:exit.obj
 0003:000012c8       ?__acrt_new_handler@@3V?$dual_state_global@P6AH_K@Z@__crt_state_management@@A 00000001800272c8     libucrt:new_handler.obj
 0003:000012d0       ?program_name@?1???$common_configure_argv@D@@YAHW4_crt_argv_mode@@@Z@4PADA 00000001800272d0     libucrt:argv_parsing.obj
 0003:00001430       ?__acrt_lock_table@@3PAU_RTL_CRITICAL_SECTION@@A 0000000180027430     libucrt:locks.obj
 0003:00001660       ?__acrt_locks_initialized@@3IA 0000000180027660     libucrt:locks.obj
 0003:00001670       ?module_handles@@3PAPEAUHINSTANCE__@@A 0000000180027670     libucrt:winapi_thunks.obj
 0003:00001710       ?encoded_function_pointers@@3PAPEAXA 0000000180027710     libucrt:winapi_thunks.obj
 0003:00001c28       ?internal_state@?1??_mbtowc_l@@9@4U_Mbstatet@@A 0000000180027c28     libucrt:mbtowc.obj
 0003:00001c30       ?enable_percent_n@@3_KA    0000000180027c30     libucrt:printf_count_output.obj
 0003:00001c60       ?fSystemSet@@3HA           0000000180027c60     libucrt:mbctype.obj
 0003:00001c64       ?initialized@?1??__acrt_initialize_multibyte@@9@4_NA 0000000180027c64     libucrt:mbctype.obj
 0003:00001ca0       ?ctrlc_action@@3V?$dual_state_global@P6AXH@Z@__crt_state_management@@A 0000000180027ca0     libucrt:signal.obj
 0003:00001ca8       ?ctrlbreak_action@@3V?$dual_state_global@P6AXH@Z@__crt_state_management@@A 0000000180027ca8     libucrt:signal.obj
 0003:00001cb0       ?abort_action@@3V?$dual_state_global@P6AXH@Z@__crt_state_management@@A 0000000180027cb0     libucrt:signal.obj
 0003:00001cb8       ?term_action@@3V?$dual_state_global@P6AXH@Z@__crt_state_management@@A 0000000180027cb8     libucrt:signal.obj
 0003:00001cc0       ?user_matherr@@3V?$dual_state_global@P6AHPEAU_exception@@@Z@__crt_state_management@@A 0000000180027cc0     libucrt:matherr.obj
 0003:00001cd0       ?__acrt_global_new_mode@@3V?$dual_state_global@J@__crt_state_management@@A 0000000180027cd0     libucrt:new_mode.obj
 0003:00001cd4       ?__acrt_app_type@@3W4_crt_app_type@@A 0000000180027cd4     libucrt:report_runtime_error.obj
 0003:00001cd8       ?internal_pst@?1??__mbrtoc32_utf8@__crt_mbstring@@YA_KPEA_UPEBD_KPEAU_Mbstatet@@@Z@4U3@A 0000000180027cd8     libucrt:mbrtoc32.obj
 0003:00001ce8       ?internal_pst@?1??__c16rtomb_utf8@__crt_mbstring@@YA_KPEAD_SPEAU_Mbstatet@@@Z@4U3@A 0000000180027ce8     libucrt:c16rtomb.obj
 0003:00001f70       ?node_dll@@3PEAUHINSTANCE__@@EA 0000000180027f70     win_delay_load_hook.obj
 0003:00001f78       ?nw_dll@@3PEAUHINSTANCE__@@EA 0000000180027f78     win_delay_load_hook.obj
 0004:00000000       $pdata$??__EdeviceMap@@YAXXZ 0000000180028000     deviceList.obj
 0004:0000000c       $pdata$??__E_AtlBaseModule@ATL@@YAXXZ 000000018002800c     atls:atlbase.obj
 0004:00000018       $pdata$?FunctionCallbackWrapper@imp@Nan@@YAXAEBV?$FunctionCallbackInfo@VValue@v8@@@v8@@@Z 0000000180028018     detection.obj
 0004:00000024       $pdata$?ThrowTypeError@Nan@@YAXPEBD@Z 0000000180028024     detection.obj
 0004:00000030       $pdata$?Call@Callback@Nan@@QEBA?AV?$Local@VValue@v8@@@v8@@HQEAV34@@Z 0000000180028030     detection.obj
 0004:0000003c       $pdata$??1ListResultItem_t@@QEAA@XZ 000000018002803c     detection.obj
 0004:00000048       $pdata$?RegisterAdded@@YAXAEBV?$FunctionCallbackInfo@VValue@v8@@@Nan@@@Z 0000000180028048     detection.obj
 0004:00000054       $pdata$?NotifyAdded@@YAXPEAUListResultItem_t@@@Z 0000000180028054     detection.obj
 0004:00000060       $pdata$0$?NotifyAdded@@YAXPEAUListResultItem_t@@@Z 0000000180028060     detection.obj
 0004:0000006c       $pdata$1$?NotifyAdded@@YAXPEAUListResultItem_t@@@Z 000000018002806c     detection.obj
 0004:00000078       $pdata$2$?NotifyAdded@@YAXPEAUListResultItem_t@@@Z 0000000180028078     detection.obj
 0004:00000084       $pdata$3$?NotifyAdded@@YAXPEAUListResultItem_t@@@Z 0000000180028084     detection.obj
 0004:00000090       $pdata$?RegisterRemoved@@YAXAEBV?$FunctionCallbackInfo@VValue@v8@@@Nan@@@Z 0000000180028090     detection.obj
 0004:0000009c       $pdata$?NotifyRemoved@@YAXPEAUListResultItem_t@@@Z 000000018002809c     detection.obj
 0004:000000a8       $pdata$0$?NotifyRemoved@@YAXPEAUListResultItem_t@@@Z 00000001800280a8     detection.obj
 0004:000000b4       $pdata$1$?NotifyRemoved@@YAXPEAUListResultItem_t@@@Z 00000001800280b4     detection.obj
 0004:000000c0       $pdata$2$?NotifyRemoved@@YAXPEAUListResultItem_t@@@Z 00000001800280c0     detection.obj
 0004:000000cc       $pdata$3$?NotifyRemoved@@YAXPEAUListResultItem_t@@@Z 00000001800280cc     detection.obj
 0004:000000d8       $pdata$?Find@@YAXAEBV?$FunctionCallbackInfo@VValue@v8@@@Nan@@@Z 00000001800280d8     detection.obj
 0004:000000e4       $pdata$0$?Find@@YAXAEBV?$FunctionCallbackInfo@VValue@v8@@@Nan@@@Z 00000001800280e4     detection.obj
 0004:000000f0       $pdata$1$?Find@@YAXAEBV?$FunctionCallbackInfo@VValue@v8@@@Nan@@@Z 00000001800280f0     detection.obj
 0004:000000fc       $pdata$?EIO_AfterFind@@YAXPEAUuv_work_s@@@Z 00000001800280fc     detection.obj
 0004:00000108       $pdata$0$?EIO_AfterFind@@YAXPEAUuv_work_s@@@Z 0000000180028108     detection.obj
 0004:00000114       $pdata$1$?EIO_AfterFind@@YAXPEAUuv_work_s@@@Z 0000000180028114     detection.obj
 0004:00000120       $pdata$2$?EIO_AfterFind@@YAXPEAUuv_work_s@@@Z 0000000180028120     detection.obj
 0004:0000012c       $pdata$3$?EIO_AfterFind@@YAXPEAUuv_work_s@@@Z 000000018002812c     detection.obj
 0004:00000138       $pdata$?StartMonitoring@@YAXAEBV?$FunctionCallbackInfo@VValue@v8@@@Nan@@@Z 0000000180028138     detection.obj
 0004:00000144       $pdata$0$?StartMonitoring@@YAXAEBV?$FunctionCallbackInfo@VValue@v8@@@Nan@@@Z 0000000180028144     detection.obj
 0004:00000150       $pdata$1$?StartMonitoring@@YAXAEBV?$FunctionCallbackInfo@VValue@v8@@@Nan@@@Z 0000000180028150     detection.obj
 0004:0000015c       $pdata$?StopMonitoring@@YAXAEBV?$FunctionCallbackInfo@VValue@v8@@@Nan@@@Z 000000018002815c     detection.obj
 0004:0000015c       $pdata$?cbTerminate@@YAXPEAUuv_signal_s@@H@Z 000000018002815c     detection_win.obj
 0004:00000168       $pdata$init                0000000180028168     detection.obj
 0004:00000174       $pdata$??$SetMethod@VObject@v8@@VLocal@2@@Nan@@YAXV?$Local@VObject@v8@@@v8@@PEBDP6AXAEBV?$FunctionCallbackInfo@VValue@v8@@@0@@Z@Z 0000000180028174     detection.obj
 0004:00000180       $pdata$3$??$SetMethod@VObject@v8@@VLocal@2@@Nan@@YAXV?$Local@VObject@v8@@@v8@@PEBDP6AXAEBV?$FunctionCallbackInfo@VValue@v8@@@0@@Z@Z 0000000180028180     detection.obj
 0004:0000018c       $pdata$4$??$SetMethod@VObject@v8@@VLocal@2@@Nan@@YAXV?$Local@VObject@v8@@@v8@@PEBDP6AXAEBV?$FunctionCallbackInfo@VValue@v8@@@0@@Z@Z 000000018002818c     detection.obj
 0004:00000198       $pdata$5$??$SetMethod@VObject@v8@@VLocal@2@@Nan@@YAXV?$Local@VObject@v8@@@v8@@PEBDP6AXAEBV?$FunctionCallbackInfo@VValue@v8@@@0@@Z@Z 0000000180028198     detection.obj
 0004:000001a4       $pdata$6$??$SetMethod@VObject@v8@@VLocal@2@@Nan@@YAXV?$Local@VObject@v8@@@v8@@PEBDP6AXAEBV?$FunctionCallbackInfo@VValue@v8@@@0@@Z@Z 00000001800281a4     detection.obj
 0004:000001b0       $pdata$??$SetMethodAux@V?$Local@VObject@v8@@@v8@@@imp@Nan@@YAXV?$Local@VObject@v8@@@v8@@V?$Local@VString@v8@@@3@V?$Local@VFunctionTemplate@v8@@@3@ZZ 00000001800281b0     detection.obj
 0004:000001bc       $pdata$?AddItemToList@@YAXPEADPEAU_DeviceItem_t@@@Z 00000001800281bc     deviceList.obj
 0004:000001c8       $pdata$?GetItemFromList@@YAPEAU_DeviceItem_t@@PEAD@Z 00000001800281c8     deviceList.obj
 0004:000001d4       $pdata$1$?GetItemFromList@@YAPEAU_DeviceItem_t@@PEAD@Z 00000001800281d4     deviceList.obj
 0004:000001e0       $pdata$2$?GetItemFromList@@YAPEAU_DeviceItem_t@@PEAD@Z 00000001800281e0     deviceList.obj
 0004:000001ec       $pdata$3$?GetItemFromList@@YAPEAU_DeviceItem_t@@PEAD@Z 00000001800281ec     deviceList.obj
 0004:000001f8       $pdata$4$?GetItemFromList@@YAPEAU_DeviceItem_t@@PEAD@Z 00000001800281f8     deviceList.obj
 0004:00000204       $pdata$5$?GetItemFromList@@YAPEAU_DeviceItem_t@@PEAD@Z 0000000180028204     deviceList.obj
 0004:00000210       $pdata$6$?GetItemFromList@@YAPEAU_DeviceItem_t@@PEAD@Z 0000000180028210     deviceList.obj
 0004:0000021c       $pdata$?IsItemAlreadyStored@@YA_NPEAD@Z 000000018002821c     deviceList.obj
 0004:00000228       $pdata$1$?IsItemAlreadyStored@@YA_NPEAD@Z 0000000180028228     deviceList.obj
 0004:00000234       $pdata$2$?IsItemAlreadyStored@@YA_NPEAD@Z 0000000180028234     deviceList.obj
 0004:00000240       $pdata$3$?IsItemAlreadyStored@@YA_NPEAD@Z 0000000180028240     deviceList.obj
 0004:0000024c       $pdata$4$?IsItemAlreadyStored@@YA_NPEAD@Z 000000018002824c     deviceList.obj
 0004:00000258       $pdata$5$?IsItemAlreadyStored@@YA_NPEAD@Z 0000000180028258     deviceList.obj
 0004:00000264       $pdata$6$?IsItemAlreadyStored@@YA_NPEAD@Z 0000000180028264     deviceList.obj
 0004:00000270       $pdata$?CopyElement@@YAPEAUListResultItem_t@@PEAU1@@Z 0000000180028270     deviceList.obj
 0004:0000027c       $pdata$?erase@?$_Tree@V?$_Tmap_traits@V?$basic_string@DU?$char_traits@D@std@@V?$allocator@D@2@@std@@PEAU_DeviceItem_t@@U?$less@V?$basic_string@DU?$char_traits@D@std@@V?$allocator@D@2@@std@@@2@V?$allocator@U?$pair@$$CBV?$basic_string@DU?$char_traits@D@std@@V?$allocator@D@2@@std@@PEAU_DeviceItem_t@@@std@@@2@$0A@@std@@@std@@QEAA?AV?$_Tree_iterator@V?$_Tree_val@U?$_Tree_simple_types@U?$pair@$$CBV?$basic_string@DU?$char_traits@D@std@@V?$allocator@D@2@@std@@PEAU_DeviceItem_t@@@std@@@std@@@std@@@2@V?$_Tree_const_iterator@V?$_Tree_val@U?$_Tree_simple_types@U?$pair@$$CBV?$basic_string@DU?$char_traits@D@std@@V?$allocator@D@2@@std@@PEAU_DeviceItem_t@@@std@@@std@@@std@@@2@0@Z 000000018002827c     deviceList.obj
 0004:00000288       $pdata$?assign@?$basic_string@DU?$char_traits@D@std@@V?$allocator@D@2@@std@@QEAAAEAV12@QEBD_K@Z 0000000180028288     deviceList.obj
 0004:00000294       $pdata$0$?assign@?$basic_string@DU?$char_traits@D@std@@V?$allocator@D@2@@std@@QEAAAEAV12@QEBD_K@Z 0000000180028294     deviceList.obj
 0004:000002a0       $pdata$1$?assign@?$basic_string@DU?$char_traits@D@std@@V?$allocator@D@2@@std@@QEAAAEAV12@QEBD_K@Z 00000001800282a0     deviceList.obj
 0004:000002ac       $pdata$2$?assign@?$basic_string@DU?$char_traits@D@std@@V?$allocator@D@2@@std@@QEAAAEAV12@QEBD_K@Z 00000001800282ac     deviceList.obj
 0004:000002b8       $pdata$3$?assign@?$basic_string@DU?$char_traits@D@std@@V?$allocator@D@2@@std@@QEAAAEAV12@QEBD_K@Z 00000001800282b8     deviceList.obj
 0004:000002c4       $pdata$?_Extract@?$_Tree_val@U?$_Tree_simple_types@U?$pair@$$CBV?$basic_string@DU?$char_traits@D@std@@V?$allocator@D@2@@std@@PEAU_DeviceItem_t@@@std@@@std@@@std@@QEAAPEAU?$_Tree_node@U?$pair@$$CBV?$basic_string@DU?$char_traits@D@std@@V?$allocator@D@2@@std@@PEAU_DeviceItem_t@@@std@@PEAX@2@V?$_Tree_const_iterator@V?$_Tree_val@U?$_Tree_simple_types@U?$pair@$$CBV?$basic_string@DU?$char_traits@D@std@@V?$allocator@D@2@@std@@PEAU_DeviceItem_t@@@std@@@std@@@std@@@2@@Z 00000001800282c4     deviceList.obj
 0004:000002d0       $pdata$?_Erase@?$_Tree@V?$_Tmap_traits@V?$basic_string@DU?$char_traits@D@std@@V?$allocator@D@2@@std@@PEAU_DeviceItem_t@@U?$less@V?$basic_string@DU?$char_traits@D@std@@V?$allocator@D@2@@std@@@2@V?$allocator@U?$pair@$$CBV?$basic_string@DU?$char_traits@D@std@@V?$allocator@D@2@@std@@PEAU_DeviceItem_t@@@std@@@2@$0A@@std@@@std@@IEAAXPEAU?$_Tree_node@U?$pair@$$CBV?$basic_string@DU?$char_traits@D@std@@V?$allocator@D@2@@std@@PEAU_DeviceItem_t@@@std@@PEAX@2@@Z 00000001800282d0     deviceList.obj
 0004:000002dc       $pdata$0$?_Erase@?$_Tree@V?$_Tmap_traits@V?$basic_string@DU?$char_traits@D@std@@V?$allocator@D@2@@std@@PEAU_DeviceItem_t@@U?$less@V?$basic_string@DU?$char_traits@D@std@@V?$allocator@D@2@@std@@@2@V?$allocator@U?$pair@$$CBV?$basic_string@DU?$char_traits@D@std@@V?$allocator@D@2@@std@@PEAU_DeviceItem_t@@@std@@@2@$0A@@std@@@std@@IEAAXPEAU?$_Tree_node@U?$pair@$$CBV?$basic_string@DU?$char_traits@D@std@@V?$allocator@D@2@@std@@PEAU_DeviceItem_t@@@std@@PEAX@2@@Z 00000001800282dc     deviceList.obj
 0004:000002e8       $pdata$1$?_Erase@?$_Tree@V?$_Tmap_traits@V?$basic_string@DU?$char_traits@D@std@@V?$allocator@D@2@@std@@PEAU_DeviceItem_t@@U?$less@V?$basic_string@DU?$char_traits@D@std@@V?$allocator@D@2@@std@@@2@V?$allocator@U?$pair@$$CBV?$basic_string@DU?$char_traits@D@std@@V?$allocator@D@2@@std@@PEAU_DeviceItem_t@@@std@@@2@$0A@@std@@@std@@IEAAXPEAU?$_Tree_node@U?$pair@$$CBV?$basic_string@DU?$char_traits@D@std@@V?$allocator@D@2@@std@@PEAU_DeviceItem_t@@@std@@PEAX@2@@Z 00000001800282e8     deviceList.obj
 0004:000002f4       $pdata$2$?_Erase@?$_Tree@V?$_Tmap_traits@V?$basic_string@DU?$char_traits@D@std@@V?$allocator@D@2@@std@@PEAU_DeviceItem_t@@U?$less@V?$basic_string@DU?$char_traits@D@std@@V?$allocator@D@2@@std@@@2@V?$allocator@U?$pair@$$CBV?$basic_string@DU?$char_traits@D@std@@V?$allocator@D@2@@std@@PEAU_DeviceItem_t@@@std@@@2@$0A@@std@@@std@@IEAAXPEAU?$_Tree_node@U?$pair@$$CBV?$basic_string@DU?$char_traits@D@std@@V?$allocator@D@2@@std@@PEAU_DeviceItem_t@@@std@@PEAX@2@@Z 00000001800282f4     deviceList.obj
 0004:00000300       $pdata$?_Xlen@?$basic_string@DU?$char_traits@D@std@@V?$allocator@D@2@@std@@SAXXZ 0000000180028300     deviceList.obj
 0004:0000030c       $pdata$??$_Eqrange@V?$basic_string@DU?$char_traits@D@std@@V?$allocator@D@2@@std@@@?$_Tree@V?$_Tmap_traits@V?$basic_string@DU?$char_traits@D@std@@V?$allocator@D@2@@std@@PEAU_DeviceItem_t@@U?$less@V?$basic_string@DU?$char_traits@D@std@@V?$allocator@D@2@@std@@@2@V?$allocator@U?$pair@$$CBV?$basic_string@DU?$char_traits@D@std@@V?$allocator@D@2@@std@@PEAU_DeviceItem_t@@@std@@@2@$0A@@std@@@std@@IEBA?AU?$pair@V?$_Tree_const_iterator@V?$_Tree_val@U?$_Tree_simple_types@U?$pair@$$CBV?$basic_string@DU?$char_traits@D@std@@V?$allocator@D@2@@std@@PEAU_DeviceItem_t@@@std@@@std@@@std@@@std@@V12@@1@AEBV?$basic_string@DU?$char_traits@D@std@@V?$allocator@D@2@@1@@Z 000000018002830c     deviceList.obj
 0004:00000318       $pdata$??$_Insert_nohint@AEAU?$pair@$$CBV?$basic_string@DU?$char_traits@D@std@@V?$allocator@D@2@@std@@PEAU_DeviceItem_t@@@std@@PEAU?$_Tree_node@U?$pair@$$CBV?$basic_string@DU?$char_traits@D@std@@V?$allocator@D@2@@std@@PEAU_DeviceItem_t@@@std@@PEAX@2@@?$_Tree@V?$_Tmap_traits@V?$basic_string@DU?$char_traits@D@std@@V?$allocator@D@2@@std@@PEAU_DeviceItem_t@@U?$less@V?$basic_string@DU?$char_traits@D@std@@V?$allocator@D@2@@std@@@2@V?$allocator@U?$pair@$$CBV?$basic_string@DU?$char_traits@D@std@@V?$allocator@D@2@@std@@PEAU_DeviceItem_t@@@std@@@2@$0A@@std@@@std@@IEAA?AU?$pair@V?$_Tree_iterator@V?$_Tree_val@U?$_Tree_simple_types@U?$pair@$$CBV?$basic_string@DU?$char_traits@D@std@@V?$allocator@D@2@@std@@PEAU_DeviceItem_t@@@std@@@std@@@std@@@std@@_N@1@_NAEAU?$pair@$$CBV?$basic_string@DU?$char_traits@D@std@@V?$allocator@D@2@@std@@PEAU_DeviceItem_t@@@1@PEAU?$_Tree_node@U?$pair@$$CBV?$basic_string@DU?$char_traits@D@std@@V?$allocator@D@2@@std@@PEAU_DeviceItem_t@@@std@@PEAX@1@@Z 0000000180028318     deviceList.obj
 0004:00000324       $pdata$0$??$_Insert_nohint@AEAU?$pair@$$CBV?$basic_string@DU?$char_traits@D@std@@V?$allocator@D@2@@std@@PEAU_DeviceItem_t@@@std@@PEAU?$_Tree_node@U?$pair@$$CBV?$basic_string@DU?$char_traits@D@std@@V?$allocator@D@2@@std@@PEAU_DeviceItem_t@@@std@@PEAX@2@@?$_Tree@V?$_Tmap_traits@V?$basic_string@DU?$char_traits@D@std@@V?$allocator@D@2@@std@@PEAU_DeviceItem_t@@U?$less@V?$basic_string@DU?$char_traits@D@std@@V?$allocator@D@2@@std@@@2@V?$allocator@U?$pair@$$CBV?$basic_string@DU?$char_traits@D@std@@V?$allocator@D@2@@std@@PEAU_DeviceItem_t@@@std@@@2@$0A@@std@@@std@@IEAA?AU?$pair@V?$_Tree_iterator@V?$_Tree_val@U?$_Tree_simple_types@U?$pair@$$CBV?$basic_string@DU?$char_traits@D@std@@V?$allocator@D@2@@std@@PEAU_DeviceItem_t@@@std@@@std@@@std@@@std@@_N@1@_NAEAU?$pair@$$CBV?$basic_string@DU?$char_traits@D@std@@V?$allocator@D@2@@std@@PEAU_DeviceItem_t@@@1@PEAU?$_Tree_node@U?$pair@$$CBV?$basic_string@DU?$char_traits@D@std@@V?$allocator@D@2@@std@@PEAU_DeviceItem_t@@@std@@PEAX@1@@Z 0000000180028324     deviceList.obj
 0004:00000330       $pdata$1$??$_Insert_nohint@AEAU?$pair@$$CBV?$basic_string@DU?$char_traits@D@std@@V?$allocator@D@2@@std@@PEAU_DeviceItem_t@@@std@@PEAU?$_Tree_node@U?$pair@$$CBV?$basic_string@DU?$char_traits@D@std@@V?$allocator@D@2@@std@@PEAU_DeviceItem_t@@@std@@PEAX@2@@?$_Tree@V?$_Tmap_traits@V?$basic_string@DU?$char_traits@D@std@@V?$allocator@D@2@@std@@PEAU_DeviceItem_t@@U?$less@V?$basic_string@DU?$char_traits@D@std@@V?$allocator@D@2@@std@@@2@V?$allocator@U?$pair@$$CBV?$basic_string@DU?$char_traits@D@std@@V?$allocator@D@2@@std@@PEAU_DeviceItem_t@@@std@@@2@$0A@@std@@@std@@IEAA?AU?$pair@V?$_Tree_iterator@V?$_Tree_val@U?$_Tree_simple_types@U?$pair@$$CBV?$basic_string@DU?$char_traits@D@std@@V?$allocator@D@2@@std@@PEAU_DeviceItem_t@@@std@@@std@@@std@@@std@@_N@1@_NAEAU?$pair@$$CBV?$basic_string@DU?$char_traits@D@std@@V?$allocator@D@2@@std@@PEAU_DeviceItem_t@@@1@PEAU?$_Tree_node@U?$pair@$$CBV?$basic_string@DU?$char_traits@D@std@@V?$allocator@D@2@@std@@PEAU_DeviceItem_t@@@std@@PEAX@1@@Z 0000000180028330     deviceList.obj
 0004:0000033c       $pdata$?_Destroy_if_node@?$_Tree@V?$_Tmap_traits@V?$basic_string@DU?$char_traits@D@std@@V?$allocator@D@2@@std@@PEAU_DeviceItem_t@@U?$less@V?$basic_string@DU?$char_traits@D@std@@V?$allocator@D@2@@std@@@2@V?$allocator@U?$pair@$$CBV?$basic_string@DU?$char_traits@D@std@@V?$allocator@D@2@@std@@PEAU_DeviceItem_t@@@std@@@2@$0A@@std@@@std@@IEAAXPEAU?$_Tree_node@U?$pair@$$CBV?$basic_string@DU?$char_traits@D@std@@V?$allocator@D@2@@std@@PEAU_DeviceItem_t@@@std@@PEAX@2@@Z 000000018002833c     deviceList.obj
 0004:00000348       $pdata$??$_Insert_at@AEAU?$pair@$$CBV?$basic_string@DU?$char_traits@D@std@@V?$allocator@D@2@@std@@PEAU_DeviceItem_t@@@std@@PEAU?$_Tree_node@U?$pair@$$CBV?$basic_string@DU?$char_traits@D@std@@V?$allocator@D@2@@std@@PEAU_DeviceItem_t@@@std@@PEAX@2@@?$_Tree@V?$_Tmap_traits@V?$basic_string@DU?$char_traits@D@std@@V?$allocator@D@2@@std@@PEAU_DeviceItem_t@@U?$less@V?$basic_string@DU?$char_traits@D@std@@V?$allocator@D@2@@std@@@2@V?$allocator@U?$pair@$$CBV?$basic_string@DU?$char_traits@D@std@@V?$allocator@D@2@@std@@PEAU_DeviceItem_t@@@std@@@2@$0A@@std@@@std@@IEAA?AV?$_Tree_iterator@V?$_Tree_val@U?$_Tree_simple_types@U?$pair@$$CBV?$basic_string@DU?$char_traits@D@std@@V?$allocator@D@2@@std@@PEAU_DeviceItem_t@@@std@@@std@@@std@@@1@_NPEAU?$_Tree_node@U?$pair@$$CBV?$basic_string@DU?$char_traits@D@std@@V?$allocator@D@2@@std@@PEAU_DeviceItem_t@@@std@@PEAX@1@AEAU?$pair@$$CBV?$basic_string@DU?$char_traits@D@std@@V?$allocator@D@2@@std@@PEAU_DeviceItem_t@@@1@1@Z 0000000180028348     deviceList.obj
 0004:00000354       $pdata$printf              0000000180028354     detection_win.obj
 0004:00000360       $pdata$?AtlThrowImpl@ATL@@YAXJ@Z 0000000180028360     detection_win.obj
 0004:0000036c       $pdata$?_AtlGetStringResourceImage@ATL@@YAPEBUATLSTRINGRESOURCEIMAGE@1@PEAUHINSTANCE__@@PEAUHRSRC__@@I@Z 000000018002836c     detection_win.obj
 0004:00000378       $pdata$?Reallocate@CWin32Heap@ATL@@UEAAPEAXPEAX_K@Z 0000000180028378     detection_win.obj
 0004:00000384       $pdata$??_GCWin32Heap@ATL@@UEAAPEAXI@Z 0000000180028384     detection_win.obj
 0004:00000390       $pdata$?GetInstance@CAtlStringMgr@ATL@@SAPEAUIAtlStringMgr@2@XZ 0000000180028390     detection_win.obj
 0004:0000039c       $pdata$?Allocate@CAtlStringMgr@ATL@@UEAAPEAUCStringData@2@HH@Z 000000018002839c     detection_win.obj
 0004:000003a8       $pdata$?Reallocate@CAtlStringMgr@ATL@@UEAAPEAUCStringData@2@PEAU32@HH@Z 00000001800283a8     detection_win.obj
 0004:000003b4       $pdata$??_GCAtlStringMgr@ATL@@UEAAPEAXI@Z 00000001800283b4     detection_win.obj
 0004:000003c0       $pdata$?cbWork@@YAXPEAUuv_work_s@@@Z 00000001800283c0     detection_win.obj
 0004:000003cc       $pdata$?cbAfter@@YAXPEAUuv_work_s@@@Z 00000001800283cc     detection_win.obj
 0004:000003d8       $pdata$0$?cbAfter@@YAXPEAUuv_work_s@@@Z 00000001800283d8     detection_win.obj
 0004:000003e4       $pdata$1$?cbAfter@@YAXPEAUuv_work_s@@@Z 00000001800283e4     detection_win.obj
 0004:000003f0       $pdata$?InitDetection@@YAXXZ 00000001800283f0     detection_win.obj
 0004:000003fc       $pdata$0$?InitDetection@@YAXXZ 00000001800283fc     detection_win.obj
 0004:00000408       $pdata$3$?InitDetection@@YAXXZ 0000000180028408     detection_win.obj
 0004:00000414       $pdata$4$?InitDetection@@YAXXZ 0000000180028414     detection_win.obj
 0004:00000420       $pdata$5$?InitDetection@@YAXXZ 0000000180028420     detection_win.obj
 0004:0000042c       $pdata$6$?InitDetection@@YAXXZ 000000018002842c     detection_win.obj
 0004:00000438       $pdata$7$?InitDetection@@YAXXZ 0000000180028438     detection_win.obj
 0004:00000444       $pdata$?EIO_Find@@YAXPEAUuv_work_s@@@Z 0000000180028444     detection_win.obj
 0004:00000450       $pdata$3$?EIO_Find@@YAXPEAUuv_work_s@@@Z 0000000180028450     detection_win.obj
 0004:0000045c       $pdata$4$?EIO_Find@@YAXPEAUuv_work_s@@@Z 000000018002845c     detection_win.obj
 0004:00000468       $pdata$5$?EIO_Find@@YAXPEAUuv_work_s@@@Z 0000000180028468     detection_win.obj
 0004:00000474       $pdata$?DetectCallback@@YA_JPEAUHWND__@@I_K_J@Z 0000000180028474     detection_win.obj
 0004:00000480       $pdata$?ListenerThread@@YAKPEAX@Z 0000000180028480     detection_win.obj
 0004:0000048c       $pdata$0$?ListenerThread@@YAKPEAX@Z 000000018002848c     detection_win.obj
 0004:00000498       $pdata$1$?ListenerThread@@YAKPEAX@Z 0000000180028498     detection_win.obj
 0004:000004a4       $pdata$?ExtractDeviceInfo@@YAXPEAXPEAU_SP_DEVINFO_DATA@@PEADKPEAUListResultItem_t@@@Z 00000001800284a4     detection_win.obj
 0004:000004b0       $pdata$0$?ExtractDeviceInfo@@YAXPEAXPEAU_SP_DEVINFO_DATA@@PEADKPEAUListResultItem_t@@@Z 00000001800284b0     detection_win.obj
 0004:000004bc       $pdata$1$?ExtractDeviceInfo@@YAXPEAXPEAU_SP_DEVINFO_DATA@@PEADKPEAUListResultItem_t@@@Z 00000001800284bc     detection_win.obj
 0004:000004c8       $pdata$?UpdateDevice@@YAXPEAU_DEV_BROADCAST_DEVICEINTERFACE_A@@_KW4_DeviceState_t@@@Z 00000001800284c8     detection_win.obj
 0004:000004d4       $pdata$?LoadStringA@?$CStringT@DV?$StrTraitATL@DV?$ChTraitsCRT@D@ATL@@@ATL@@@ATL@@QEAAHI@Z 00000001800284d4     detection_win.obj
 0004:000004e0       $pdata$?CloneData@?$CSimpleStringT@D$0A@@ATL@@CAPEAUCStringData@2@PEAU32@@Z 00000001800284e0     detection_win.obj
 0004:000004ec       $pdata$?SetString@?$CSimpleStringT@D$0A@@ATL@@QEAAXPEBDH@Z 00000001800284ec     detection_win.obj
 0004:000004f8       $pdata$?ThrowMemoryException@?$CSimpleStringT@D$0A@@ATL@@KAXXZ 00000001800284f8     detection_win.obj
 0004:00000504       $pdata$?CopyChars@?$CSimpleStringT@D$0A@@ATL@@SAXPEAD_KPEBDH@Z 0000000180028504     detection_win.obj
 0004:00000510       $pdata$?Reallocate@?$CSimpleStringT@D$0A@@ATL@@AEAAXH@Z 0000000180028510     detection_win.obj
 0004:0000051c       $pdata$?Fork@?$CSimpleStringT@D$0A@@ATL@@AEAAXH@Z 000000018002851c     detection_win.obj
 0004:00000528       $pdata$0$?Fork@?$CSimpleStringT@D$0A@@ATL@@AEAAXH@Z 0000000180028528     detection_win.obj
 0004:00000534       $pdata$1$?Fork@?$CSimpleStringT@D$0A@@ATL@@AEAAXH@Z 0000000180028534     detection_win.obj
 0004:00000540       $pdata$?_Xran@?$_String_val@U?$_Simple_types@D@std@@@std@@SAXXZ 0000000180028540     detection_win.obj
 0004:0000054c       $pdata$??$_snprintf_s@$0EA@@@YAHAEAY0EA@D_KPEBDZZ 000000018002854c     detection_win.obj
 0004:00000558       $pdata$??0bad_alloc@std@@QEAA@AEBV01@@Z 0000000180028558     libcpmt:xthrow.obj
 0004:00000564       $pdata$??0exception@std@@QEAA@AEBV01@@Z 0000000180028564     libcpmt:xthrow.obj
 0004:00000570       $pdata$??0length_error@std@@QEAA@AEBV01@@Z 0000000180028570     libcpmt:xthrow.obj
 0004:0000057c       $pdata$??0length_error@std@@QEAA@PEBD@Z 000000018002857c     libcpmt:xthrow.obj
 0004:00000588       $pdata$??0logic_error@std@@QEAA@AEBV01@@Z 0000000180028588     libcpmt:xthrow.obj
 0004:00000594       $pdata$??0out_of_range@std@@QEAA@AEBV01@@Z 0000000180028594     libcpmt:xthrow.obj
 0004:000005a0       $pdata$??0out_of_range@std@@QEAA@PEBD@Z 00000001800285a0     libcpmt:xthrow.obj
 0004:000005ac       $pdata$??_Gbad_array_new_length@std@@UEAAPEAXI@Z 00000001800285ac     LIBCMT:throw_bad_alloc.obj
 0004:000005ac       $pdata$??_Glogic_error@std@@UEAAPEAXI@Z 00000001800285ac     libcpmt:xthrow.obj
 0004:000005ac       $pdata$??_Glength_error@std@@UEAAPEAXI@Z 00000001800285ac     libcpmt:xthrow.obj
 0004:000005ac       $pdata$??_Gout_of_range@std@@UEAAPEAXI@Z 00000001800285ac     libcpmt:xthrow.obj
 0004:000005ac       $pdata$??_Gbad_exception@std@@UEAAPEAXI@Z 00000001800285ac     libvcruntime:frame.obj
 0004:000005ac       $pdata$??_Gbad_alloc@std@@UEAAPEAXI@Z 00000001800285ac     libcpmt:xthrow.obj
 0004:000005ac       $pdata$??_Gexception@std@@UEAAPEAXI@Z 00000001800285ac     libcpmt:xthrow.obj
 0004:000005b8       $pdata$?_Xlength_error@std@@YAXPEBD@Z 00000001800285b8     libcpmt:xthrow.obj
 0004:000005c4       $pdata$?_Xout_of_range@std@@YAXPEBD@Z 00000001800285c4     libcpmt:xthrow.obj
 0004:000005dc       $pdata$??2@YAPEAX_K@Z      00000001800285dc     LIBCMT:new_scalar.obj
 0004:000005e8       $pdata$__scrt_acquire_startup_lock 00000001800285e8     LIBCMT:utility.obj
 0004:000005f4       $pdata$__scrt_dllmain_after_initialize_c 00000001800285f4     LIBCMT:utility.obj
 0004:00000600       $pdata$__scrt_dllmain_before_initialize_c 0000000180028600     LIBCMT:utility.obj
 0004:0000060c       $pdata$__scrt_dllmain_crt_thread_attach 000000018002860c     LIBCMT:utility.obj
 0004:00000618       $pdata$__scrt_dllmain_crt_thread_detach 0000000180028618     LIBCMT:utility.obj
 0004:00000624       $pdata$__scrt_dllmain_exception_filter 0000000180028624     LIBCMT:utility.obj
 0004:00000630       $pdata$__scrt_dllmain_uninitialize_c 0000000180028630     LIBCMT:utility.obj
 0004:0000063c       $pdata$__scrt_dllmain_uninitialize_critical 000000018002863c     LIBCMT:utility.obj
 0004:00000648       $pdata$__scrt_initialize_crt 0000000180028648     LIBCMT:utility.obj
 0004:00000654       $pdata$__scrt_initialize_onexit_tables 0000000180028654     LIBCMT:utility.obj
 0004:00000660       $pdata$__scrt_is_nonwritable_in_current_image 0000000180028660     LIBCMT:utility.obj
 0004:0000066c       $pdata$__scrt_release_startup_lock 000000018002866c     LIBCMT:utility.obj
 0004:00000678       $pdata$__scrt_uninitialize_crt 0000000180028678     LIBCMT:utility.obj
 0004:00000684       $pdata$_onexit             0000000180028684     LIBCMT:utility.obj
 0004:00000690       $pdata$atexit              0000000180028690     LIBCMT:utility.obj
 0004:0000069c       $pdata$?dllmain_crt_dispatch@@YAHQEAUHINSTANCE__@@KQEAX@Z 000000018002869c     LIBCMT:dll_dllmain.obj
 0004:000006a8       $pdata$?dllmain_crt_process_attach@@YAHQEAUHINSTANCE__@@QEAX@Z 00000001800286a8     LIBCMT:dll_dllmain.obj
 0004:000006b4       $pdata$?dllmain_crt_process_detach@@YAH_N@Z 00000001800286b4     LIBCMT:dll_dllmain.obj
 0004:000006c0       $pdata$?dllmain_dispatch@@YAHQEAUHINSTANCE__@@KQEAX@Z 00000001800286c0     LIBCMT:dll_dllmain.obj
 0004:000006cc       $pdata$_DllMainCRTStartup  00000001800286cc     LIBCMT:dll_dllmain.obj
 0004:000006d8       $pdata$??_Gtype_info@@UEAAPEAXI@Z 00000001800286d8     LIBCMT:std_type_info_static.obj
 0004:000006e4       $pdata$__raise_securityfailure 00000001800286e4     LIBCMT:gs_report.obj
 0004:000006f0       $pdata$__report_gsfailure  00000001800286f0     LIBCMT:gs_report.obj
 0004:000006fc       $pdata$__report_rangecheckfailure 00000001800286fc     LIBCMT:gs_report.obj
 0004:00000708       $pdata$__report_securityfailure 0000000180028708     LIBCMT:gs_report.obj
 0004:00000714       $pdata$capture_current_context 0000000180028714     LIBCMT:gs_report.obj
 0004:00000720       $pdata$capture_previous_context 0000000180028720     LIBCMT:gs_report.obj
 0004:0000072c       $pdata$??0bad_array_new_length@std@@QEAA@AEBV01@@Z 000000018002872c     LIBCMT:throw_bad_alloc.obj
 0004:00000738       $pdata$?__scrt_throw_std_bad_alloc@@YAXXZ 0000000180028738     LIBCMT:throw_bad_alloc.obj
 0004:00000744       $pdata$?__scrt_throw_std_bad_array_new_length@@YAXXZ 0000000180028744     LIBCMT:throw_bad_alloc.obj
 0004:00000750       $pdata$__isa_available_init 0000000180028750     LIBCMT:_cpu_disp_.obj
 0004:0000075c       $pdata$__scrt_fastfail     000000018002875c     LIBCMT:utility_desktop.obj
 0004:00000768       $pdata$__security_init_cookie 0000000180028768     LIBCMT:gs_support.obj
 0004:00000774       $pdata$__scrt_initialize_default_local_stdio_options 0000000180028774     LIBCMT:default_local_stdio_options.obj
 0004:00000780       $pdata$_RTC_Initialize     0000000180028780     LIBCMT:_initsect_.obj
 0004:0000078c       $pdata$_RTC_Terminate      000000018002878c     LIBCMT:_initsect_.obj
 0004:00000798       $pdata$??0CAtlBaseModule@ATL@@QEAA@XZ 0000000180028798     atls:atlbase.obj
 0004:000007a4       $pdata$??1CAtlBaseModule@ATL@@QEAA@XZ 00000001800287a4     atls:atlbase.obj
 0004:000007b0       $pdata$?GetHInstanceAt@CAtlBaseModule@ATL@@QEAAPEAUHINSTANCE__@@H@Z 00000001800287b0     atls:atlbase.obj
 0004:000007bc       $pdata$strstr              00000001800287bc     libvcruntime:strstr.obj
 0004:000007c8       $pdata$__std_exception_copy 00000001800287c8     libvcruntime:std_exception.obj
 0004:000007d4       $pdata$__std_exception_destroy 00000001800287d4     libvcruntime:std_exception.obj
 0004:000007e0       $pdata$_CxxThrowException  00000001800287e0     libvcruntime:throw.obj
 0004:000007ec       $pdata$__vcrt_initialize   00000001800287ec     libvcruntime:initialization.obj
 0004:000007f8       $pdata$__vcrt_thread_attach 00000001800287f8     libvcruntime:initialization.obj
 0004:00000804       $pdata$__vcrt_thread_detach 0000000180028804     libvcruntime:initialization.obj
 0004:00000810       $pdata$__vcrt_uninitialize 0000000180028810     libvcruntime:initialization.obj
 0004:0000081c       $pdata$__vcrt_uninitialize_critical 000000018002881c     libvcruntime:initialization.obj
 0004:00000828       $pdata$__C_specific_handler 0000000180028828     libvcruntime:_riscchandler_.obj
 0004:00000840       $pdata$__std_type_info_destroy_list 0000000180028840     libvcruntime:std_type_info.obj
 0004:00000858       $pdata$__vcrt_freefls      0000000180028858     libvcruntime:per_thread_data.obj
 0004:00000864       $pdata$__vcrt_freeptd      0000000180028864     libvcruntime:per_thread_data.obj
 0004:00000870       $pdata$__vcrt_getptd       0000000180028870     libvcruntime:per_thread_data.obj
 0004:0000087c       $pdata$__vcrt_getptd_noexit 000000018002887c     libvcruntime:per_thread_data.obj
 0004:00000888       $pdata$__vcrt_initialize_ptd 0000000180028888     libvcruntime:per_thread_data.obj
 0004:00000894       $pdata$__vcrt_uninitialize_ptd 0000000180028894     libvcruntime:per_thread_data.obj
 0004:000008a0       $pdata$__vcrt_initialize_locks 00000001800288a0     libvcruntime:locks.obj
 0004:000008ac       $pdata$__vcrt_uninitialize_locks 00000001800288ac     libvcruntime:locks.obj
 0004:000008b8       $pdata$?try_get_function@@YAPEAXW4function_id@?A0x89697e75@@QEBDQEBW4module_id@2@2@Z 00000001800288b8     libvcruntime:winapi_downlevel.obj
 0004:000008c4       $pdata$__vcrt_FlsAlloc     00000001800288c4     libvcruntime:winapi_downlevel.obj
 0004:000008d0       $pdata$__vcrt_FlsFree      00000001800288d0     libvcruntime:winapi_downlevel.obj
 0004:000008dc       $pdata$__vcrt_FlsGetValue  00000001800288dc     libvcruntime:winapi_downlevel.obj
 0004:000008e8       $pdata$__vcrt_FlsSetValue  00000001800288e8     libvcruntime:winapi_downlevel.obj
 0004:000008f4       $pdata$__vcrt_InitializeCriticalSectionEx 00000001800288f4     libvcruntime:winapi_downlevel.obj
 0004:00000900       $pdata$__vcrt_initialize_winapi_thunks 0000000180028900     libvcruntime:winapi_downlevel.obj
 0004:0000090c       $pdata$__vcrt_uninitialize_winapi_thunks 000000018002890c     libvcruntime:winapi_downlevel.obj
 0004:00000948       $pdata$?_ExecutionInCatch@@YAHPEAU_xDISPATCHER_CONTEXT@@PEBU_s_FuncInfo@@@Z 0000000180028948     libvcruntime:risctrnsctrl.obj
 0004:00000954       $pdata$?_GetEstablisherFrame@@YAPEA_KPEA_KPEAU_xDISPATCHER_CONTEXT@@PEBU_s_FuncInfo@@0@Z 0000000180028954     libvcruntime:risctrnsctrl.obj
 0004:00000960       $pdata$?_GetRangeOfTrysToCheck@@YAPEBU_s_TryBlockMapEntry@@PEA_KPEBU_s_FuncInfo@@HHPEAI2PEAU_xDISPATCHER_CONTEXT@@@Z 0000000180028960     libvcruntime:risctrnsctrl.obj
 0004:0000096c       $pdata$?__FrameUnwindToEmptyState@@YAXPEA_KPEAU_xDISPATCHER_CONTEXT@@PEBU_s_FuncInfo@@@Z 000000018002896c     libvcruntime:risctrnsctrl.obj
 0004:00000978       $pdata$_CallSETranslator   0000000180028978     libvcruntime:risctrnsctrl.obj
 0004:00000984       $pdata$_CreateFrameInfo    0000000180028984     libvcruntime:risctrnsctrl.obj
 0004:00000990       $pdata$_FindAndUnlinkFrame 0000000180028990     libvcruntime:risctrnsctrl.obj
 0004:0000099c       $pdata$_GetImageBase       000000018002899c     libvcruntime:risctrnsctrl.obj
 0004:000009a8       $pdata$_GetThrowImageBase  00000001800289a8     libvcruntime:risctrnsctrl.obj
 0004:000009b4       $pdata$_SetImageBase       00000001800289b4     libvcruntime:risctrnsctrl.obj
 0004:000009c0       $pdata$_SetThrowImageBase  00000001800289c0     libvcruntime:risctrnsctrl.obj
 0004:000009cc       $pdata$_UnwindNestedFrames 00000001800289cc     libvcruntime:risctrnsctrl.obj
 0004:000009d8       $pdata$__CxxFrameHandler3  00000001800289d8     libvcruntime:risctrnsctrl.obj
 0004:000009e4       $pdata$?__GetCurrentState@@YAHPEA_KPEAU_xDISPATCHER_CONTEXT@@PEBU_s_FuncInfo@@@Z 00000001800289e4     libvcruntime:riscehstate.obj
 0004:000009f0       $pdata$?__GetUnwindTryBlock@@YAHPEA_KPEAU_xDISPATCHER_CONTEXT@@PEBU_s_FuncInfo@@@Z 00000001800289f0     libvcruntime:riscehstate.obj
 0004:000009fc       $pdata$?__SetUnwindTryBlock@@YAXPEA_KPEAU_xDISPATCHER_CONTEXT@@PEBU_s_FuncInfo@@H@Z 00000001800289fc     libvcruntime:riscehstate.obj
 0004:00000a08       $pdata$?__StateFromIp@@YAHPEBU_s_FuncInfo@@PEAU_xDISPATCHER_CONTEXT@@_K@Z 0000000180028a08     libvcruntime:riscehstate.obj
 0004:00000a14       $pdata$??0bad_exception@std@@QEAA@AEBV01@@Z 0000000180028a14     libvcruntime:frame.obj
 0004:00000a20       $pdata$?CatchIt@@YAXPEAUEHExceptionRecord@@PEA_KPEAU_CONTEXT@@PEAU_xDISPATCHER_CONTEXT@@PEBU_s_FuncInfo@@PEBU_s_HandlerType@@PEBU_s_CatchableType@@PEBU_s_TryBlockMapEntry@@H1EE@Z 0000000180028a20     libvcruntime:frame.obj
 0004:00000a2c       $pdata$?ExFilterRethrow@@YAHPEAU_EXCEPTION_POINTERS@@PEAUEHExceptionRecord@@PEAH@Z 0000000180028a2c     libvcruntime:frame.obj
 0004:00000a38       $pdata$?FindHandler@@YAXPEAUEHExceptionRecord@@PEA_KPEAU_CONTEXT@@PEAU_xDISPATCHER_CONTEXT@@PEBU_s_FuncInfo@@EH1@Z 0000000180028a38     libvcruntime:frame.obj
 0004:00000a44       $pdata$?FindHandlerForForeignException@@YAXPEAUEHExceptionRecord@@PEA_KPEAU_CONTEXT@@PEAU_xDISPATCHER_CONTEXT@@PEBU_s_FuncInfo@@HH1@Z 0000000180028a44     libvcruntime:frame.obj
 0004:00000a50       $pdata$?IsInExceptionSpec@@YAEPEAUEHExceptionRecord@@PEBU_s_ESTypeList@@@Z 0000000180028a50     libvcruntime:frame.obj
 0004:00000a5c       $pdata$__BuildCatchObject  0000000180028a5c     libvcruntime:frame.obj
 0004:00000a68       $pdata$__BuildCatchObjectHelper 0000000180028a68     libvcruntime:frame.obj
 0004:00000a74       $pdata$__CxxCallCatchBlock 0000000180028a74     libvcruntime:frame.obj
 0004:00000a80       $pdata$__FrameUnwindToState 0000000180028a80     libvcruntime:frame.obj
 0004:00000a8c       $pdata$__InternalCxxFrameHandler 0000000180028a8c     libvcruntime:frame.obj
 0004:00000a98       $pdata$__TypeMatch         0000000180028a98     libvcruntime:frame.obj
 0004:00000ab0       $pdata$__DestructExceptionObject 0000000180028ab0     libvcruntime:ehhelpers.obj
 0004:00000abc       $pdata$_IsExceptionObjectToBeDestroyed 0000000180028abc     libvcruntime:ehhelpers.obj
 0004:00000ac8       $pdata$__FrameUnwindFilter 0000000180028ac8     libvcruntime:ehhelpers.obj
 0004:00000ad4       $pdata$__acrt_call_reportfault 0000000180028ad4     libucrt:invalid_parameter.obj
 0004:00000ae0       $pdata$_invalid_parameter  0000000180028ae0     libucrt:invalid_parameter.obj
 0004:00000aec       $pdata$_invalid_parameter_noinfo 0000000180028aec     libucrt:invalid_parameter.obj
 0004:00000af8       $pdata$_invalid_parameter_noinfo_noreturn 0000000180028af8     libucrt:invalid_parameter.obj
 0004:00000b04       $pdata$_invoke_watson      0000000180028b04     libucrt:invalid_parameter.obj
 0004:00000b10       $pdata$??$?RV<lambda_d80eeec6fff315bfe5c115232f3240e3>@@AEAV<lambda_6e4b09c48022b2350581041d5f6b0c4c>@@V<lambda_2358e3775559c9db80273638284d5e45>@@@?$__crt_seh_guarded_call@X@@QEAAX$$QEAV<lambda_d80eeec6fff315bfe5c115232f3240e3>@@AEAV<lambda_6e4b09c48022b2350581041d5f6b0c4c>@@$$QEAV<lambda_2358e3775559c9db80273638284d5e45>@@@Z 0000000180028b10     libucrt:exit.obj
 0004:00000b1c       $pdata$??R<lambda_6e4b09c48022b2350581041d5f6b0c4c>@@QEBA@XZ 0000000180028b1c     libucrt:exit.obj
 0004:00000b28       $pdata$?common_exit@@YAXHW4_crt_exit_cleanup_mode@@W4_crt_exit_return_mode@@@Z 0000000180028b28     libucrt:exit.obj
 0004:00000b34       $pdata$?exit_or_terminate_process@@YAXI@Z 0000000180028b34     libucrt:exit.obj
 0004:00000b40       $pdata$?try_cor_exit_process@@YAXI@Z 0000000180028b40     libucrt:exit.obj
 0004:00000b4c       $pdata$_mbsinc             0000000180028b4c     libucrt:mbsinc.obj
 0004:00000b58       $pdata$??0_LocaleUpdate@@QEAA@QEAU__crt_locale_pointers@@@Z 0000000180028b58     libucrt:mbscmp.obj
 0004:00000b64       $pdata$_mbscmp_l           0000000180028b64     libucrt:mbscmp.obj
 0004:00000b70       $pdata$?internal_islower_l@@YA_NHQEAU__crt_locale_pointers@@@Z 0000000180028b70     libucrt:tolower_toupper.obj
 0004:00000b7c       $pdata$?internal_isupper_l@@YA_NHQEAU__crt_locale_pointers@@@Z 0000000180028b7c     libucrt:tolower_toupper.obj
 0004:00000b88       $pdata$_tolower_l          0000000180028b88     libucrt:tolower_toupper.obj
 0004:00000b94       $pdata$_toupper_l          0000000180028b94     libucrt:tolower_toupper.obj
 0004:00000ba0       $pdata$tolower             0000000180028ba0     libucrt:tolower_toupper.obj
 0004:00000bac       $pdata$toupper             0000000180028bac     libucrt:tolower_toupper.obj
 0004:00000bb8       $pdata$__acrt_initialize_stdio 0000000180028bb8     libucrt:_file.obj
 0004:00000bc4       $pdata$__acrt_uninitialize_stdio 0000000180028bc4     libucrt:_file.obj
 0004:00000bd0       $pdata$_mbsrchr_l          0000000180028bd0     libucrt:mbsrchr.obj
 0004:00000bdc       $pdata$??$?RV<lambda_a62c933ada0517137acf5807a1eeac1f>@@AEAV<lambda_a31071773b9a94e445cbd5d04ef99106>@@V<lambda_56065050dbf3ada7e59a83db45153de3>@@@?$__crt_seh_guarded_call@H@@QEAAH$$QEAV<lambda_a62c933ada0517137acf5807a1eeac1f>@@AEAV<lambda_a31071773b9a94e445cbd5d04ef99106>@@$$QEAV<lambda_56065050dbf3ada7e59a83db45153de3>@@@Z 0000000180028bdc     libucrt:output.obj
 0004:00000be8       $pdata$??$common_vsprintf@Vformat_validation_base@__crt_stdio_output@@D@@YAH_KQEAD0QEBDQEAU__crt_locale_pointers@@1@Z 0000000180028be8     libucrt:output.obj
 0004:00000bf4       $pdata$??$ensure_buffer_is_big_enough@D@formatting_buffer@__crt_stdio_output@@QEAA_N_K@Z 0000000180028bf4     libucrt:output.obj
 0004:00000c00       $pdata$??$type_case_integer_parse_into_buffer@I@?$output_processor@DV?$stream_output_adapter@D@__crt_stdio_output@@V?$standard_base@DV?$stream_output_adapter@D@__crt_stdio_output@@@2@@__crt_stdio_output@@AEAAXII_N@Z 0000000180028c00     libucrt:output.obj
 0004:00000c00       $pdata$??$type_case_integer_parse_into_buffer@I@?$output_processor@DV?$string_output_adapter@D@__crt_stdio_output@@V?$format_validation_base@DV?$string_output_adapter@D@__crt_stdio_output@@@2@@__crt_stdio_output@@AEAAXII_N@Z 0000000180028c00     libucrt:output.obj
 0004:00000c0c       $pdata$??$type_case_integer_parse_into_buffer@_K@?$output_processor@DV?$string_output_adapter@D@__crt_stdio_output@@V?$format_validation_base@DV?$string_output_adapter@D@__crt_stdio_output@@@2@@__crt_stdio_output@@AEAAX_KI_N@Z 0000000180028c0c     libucrt:output.obj
 0004:00000c0c       $pdata$??$type_case_integer_parse_into_buffer@_K@?$output_processor@DV?$stream_output_adapter@D@__crt_stdio_output@@V?$standard_base@DV?$stream_output_adapter@D@__crt_stdio_output@@@2@@__crt_stdio_output@@AEAAX_KI_N@Z 0000000180028c0c     libucrt:output.obj
 0004:00000c18       $pdata$??$write_multiple_characters@V?$stream_output_adapter@D@__crt_stdio_output@@D@__crt_stdio_output@@YAXAEBV?$stream_output_adapter@D@0@DHQEAH@Z 0000000180028c18     libucrt:output.obj
 0004:00000c24       $pdata$??$write_multiple_characters@V?$string_output_adapter@D@__crt_stdio_output@@D@__crt_stdio_output@@YAXAEBV?$string_output_adapter@D@0@DHQEAH@Z 0000000180028c24     libucrt:output.obj
 0004:00000c30       $pdata$??R<lambda_a31071773b9a94e445cbd5d04ef99106>@@QEBAHXZ 0000000180028c30     libucrt:output.obj
 0004:00000c3c       $pdata$?force_decimal_point@__crt_stdio_output@@YAXPEADQEAU__crt_locale_pointers@@@Z 0000000180028c3c     libucrt:output.obj
 0004:00000c48       $pdata$?parse_int_from_format_string@?$output_processor@DV?$string_output_adapter@D@__crt_stdio_output@@V?$format_validation_base@DV?$string_output_adapter@D@__crt_stdio_output@@@2@@__crt_stdio_output@@AEAA_NQEAH@Z 0000000180028c48     libucrt:output.obj
 0004:00000c48       $pdata$?parse_int_from_format_string@?$output_processor@DV?$stream_output_adapter@D@__crt_stdio_output@@V?$standard_base@DV?$stream_output_adapter@D@__crt_stdio_output@@@2@@__crt_stdio_output@@AEAA_NQEAH@Z 0000000180028c48     libucrt:output.obj
 0004:00000c54       $pdata$?process@?$output_processor@DV?$stream_output_adapter@D@__crt_stdio_output@@V?$standard_base@DV?$stream_output_adapter@D@__crt_stdio_output@@@2@@__crt_stdio_output@@QEAAHXZ 0000000180028c54     libucrt:output.obj
 0004:00000c60       $pdata$?process@?$output_processor@DV?$string_output_adapter@D@__crt_stdio_output@@V?$format_validation_base@DV?$string_output_adapter@D@__crt_stdio_output@@@2@@__crt_stdio_output@@QEAAHXZ 0000000180028c60     libucrt:output.obj
 0004:00000c6c       $pdata$?state_case_normal@?$output_processor@DV?$stream_output_adapter@D@__crt_stdio_output@@V?$standard_base@DV?$stream_output_adapter@D@__crt_stdio_output@@@2@@__crt_stdio_output@@AEAA_NXZ 0000000180028c6c     libucrt:output.obj
 0004:00000c78       $pdata$?state_case_normal@?$output_processor@DV?$string_output_adapter@D@__crt_stdio_output@@V?$format_validation_base@DV?$string_output_adapter@D@__crt_stdio_output@@@2@@__crt_stdio_output@@AEAA_NXZ 0000000180028c78     libucrt:output.obj
 0004:00000c84       $pdata$?state_case_normal_tchar@?$output_processor@DV?$stream_output_adapter@D@__crt_stdio_output@@V?$standard_base@DV?$stream_output_adapter@D@__crt_stdio_output@@@2@@__crt_stdio_output@@AEAA_ND@Z 0000000180028c84     libucrt:output.obj
 0004:00000c90       $pdata$?state_case_normal_tchar@?$output_processor@DV?$string_output_adapter@D@__crt_stdio_output@@V?$format_validation_base@DV?$string_output_adapter@D@__crt_stdio_output@@@2@@__crt_stdio_output@@AEAA_ND@Z 0000000180028c90     libucrt:output.obj
 0004:00000c9c       $pdata$?state_case_size@?$output_processor@DV?$stream_output_adapter@D@__crt_stdio_output@@V?$standard_base@DV?$stream_output_adapter@D@__crt_stdio_output@@@2@@__crt_stdio_output@@AEAA_NXZ 0000000180028c9c     libucrt:output.obj
 0004:00000ca8       $pdata$?state_case_size@?$output_processor@DV?$string_output_adapter@D@__crt_stdio_output@@V?$format_validation_base@DV?$string_output_adapter@D@__crt_stdio_output@@@2@@__crt_stdio_output@@AEAA_NXZ 0000000180028ca8     libucrt:output.obj
 0004:00000cb4       $pdata$?state_case_type@?$output_processor@DV?$stream_output_adapter@D@__crt_stdio_output@@V?$standard_base@DV?$stream_output_adapter@D@__crt_stdio_output@@@2@@__crt_stdio_output@@AEAA_NXZ 0000000180028cb4     libucrt:output.obj
 0004:00000cc0       $pdata$?state_case_type@?$output_processor@DV?$string_output_adapter@D@__crt_stdio_output@@V?$format_validation_base@DV?$string_output_adapter@D@__crt_stdio_output@@@2@@__crt_stdio_output@@AEAA_NXZ 0000000180028cc0     libucrt:output.obj
 0004:00000ccc       $pdata$?type_case_a@?$output_processor@DV?$string_output_adapter@D@__crt_stdio_output@@V?$format_validation_base@DV?$string_output_adapter@D@__crt_stdio_output@@@2@@__crt_stdio_output@@AEAA_NXZ 0000000180028ccc     libucrt:output.obj
 0004:00000ccc       $pdata$?type_case_a@?$output_processor@DV?$stream_output_adapter@D@__crt_stdio_output@@V?$standard_base@DV?$stream_output_adapter@D@__crt_stdio_output@@@2@@__crt_stdio_output@@AEAA_NXZ 0000000180028ccc     libucrt:output.obj
 0004:00000cd8       $pdata$?type_case_c_tchar@?$output_processor@DV?$stream_output_adapter@D@__crt_stdio_output@@V?$standard_base@DV?$stream_output_adapter@D@__crt_stdio_output@@@2@@__crt_stdio_output@@AEAA_ND@Z 0000000180028cd8     libucrt:output.obj
 0004:00000cd8       $pdata$?type_case_c_tchar@?$output_processor@DV?$string_output_adapter@D@__crt_stdio_output@@V?$format_validation_base@DV?$string_output_adapter@D@__crt_stdio_output@@@2@@__crt_stdio_output@@AEAA_ND@Z 0000000180028cd8     libucrt:output.obj
 0004:00000ce4       $pdata$?type_case_integer@?$output_processor@DV?$stream_output_adapter@D@__crt_stdio_output@@V?$standard_base@DV?$stream_output_adapter@D@__crt_stdio_output@@@2@@__crt_stdio_output@@AEAA_NI_N@Z 0000000180028ce4     libucrt:output.obj
 0004:00000ce4       $pdata$?type_case_integer@?$output_processor@DV?$string_output_adapter@D@__crt_stdio_output@@V?$format_validation_base@DV?$string_output_adapter@D@__crt_stdio_output@@@2@@__crt_stdio_output@@AEAA_NI_N@Z 0000000180028ce4     libucrt:output.obj
 0004:00000cf0       $pdata$?type_case_n@?$output_processor@DV?$string_output_adapter@D@__crt_stdio_output@@V?$format_validation_base@DV?$string_output_adapter@D@__crt_stdio_output@@@2@@__crt_stdio_output@@AEAA_NXZ 0000000180028cf0     libucrt:output.obj
 0004:00000cf0       $pdata$?type_case_n@?$output_processor@DV?$stream_output_adapter@D@__crt_stdio_output@@V?$standard_base@DV?$stream_output_adapter@D@__crt_stdio_output@@@2@@__crt_stdio_output@@AEAA_NXZ 0000000180028cf0     libucrt:output.obj
 0004:00000cfc       $pdata$?type_case_s@?$output_processor@DV?$stream_output_adapter@D@__crt_stdio_output@@V?$standard_base@DV?$stream_output_adapter@D@__crt_stdio_output@@@2@@__crt_stdio_output@@AEAA_NXZ 0000000180028cfc     libucrt:output.obj
 0004:00000cfc       $pdata$?type_case_s@?$output_processor@DV?$string_output_adapter@D@__crt_stdio_output@@V?$format_validation_base@DV?$string_output_adapter@D@__crt_stdio_output@@@2@@__crt_stdio_output@@AEAA_NXZ 0000000180028cfc     libucrt:output.obj
 0004:00000d08       $pdata$?validate_stream_is_ansi_if_required@?$__acrt_stdio_char_traits@D@@SA_NQEAU_iobuf@@@Z 0000000180028d08     libucrt:output.obj
 0004:00000d14       $pdata$?write_stored_string_tchar@?$output_processor@DV?$stream_output_adapter@D@__crt_stdio_output@@V?$standard_base@DV?$stream_output_adapter@D@__crt_stdio_output@@@2@@__crt_stdio_output@@AEAA_ND@Z 0000000180028d14     libucrt:output.obj
 0004:00000d20       $pdata$?write_stored_string_tchar@?$output_processor@DV?$string_output_adapter@D@__crt_stdio_output@@V?$format_validation_base@DV?$string_output_adapter@D@__crt_stdio_output@@@2@@__crt_stdio_output@@AEAA_ND@Z 0000000180028d20     libucrt:output.obj
 0004:00000d2c       $pdata$?write_string@?$string_output_adapter@D@__crt_stdio_output@@QEBAXQEBDHQEAHAEAV__crt_deferred_errno_cache@@@Z 0000000180028d2c     libucrt:output.obj
 0004:00000d38       $pdata$?write_string_impl@?$output_adapter_common@DV?$stream_output_adapter@D@__crt_stdio_output@@@__crt_stdio_output@@IEBAXQEBDHQEAHAEAV__crt_deferred_errno_cache@@@Z 0000000180028d38     libucrt:output.obj
 0004:00000d44       $pdata$__stdio_common_vfprintf 0000000180028d44     libucrt:output.obj
 0004:00000d50       $pdata$__stdio_common_vsnprintf_s 0000000180028d50     libucrt:output.obj
 0004:00000d5c       $pdata$_mbsupr_s_l         0000000180028d5c     libucrt:mbsupr.obj
 0004:00000d68       $pdata$_mbschr_l           0000000180028d68     libucrt:mbschr.obj
 0004:00000d74       $pdata$__acrt_errno_map_os_error 0000000180028d74     libucrt:errno.obj
 0004:00000d80       $pdata$__doserrno          0000000180028d80     libucrt:errno.obj
 0004:00000d8c       $pdata$_errno              0000000180028d8c     libucrt:errno.obj
 0004:00000d98       $pdata$??$parse_integer@KV?$c_string_character_source@D@__crt_strtox@@@__crt_strtox@@YAKQEAU__crt_locale_pointers@@V?$c_string_character_source@D@0@H_N@Z 0000000180028d98     libucrt:strtox.obj
 0004:00000da4       $pdata$strtol              0000000180028da4     libucrt:strtox.obj
 0004:00000db0       $pdata$_callnewh           0000000180028db0     libucrt:new_handler.obj
 0004:00000dbc       $pdata$_query_new_handler  0000000180028dbc     libucrt:new_handler.obj
 0004:00000dc8       $pdata$_seh_filter_exe     0000000180028dc8     libucrt:exception_filter.obj
 0004:00000dd4       $pdata$??$parse_command_line@D@@YAXPEADPEAPEAD0PEA_K2@Z 0000000180028dd4     libucrt:argv_parsing.obj
 0004:00000de0       $pdata$__acrt_allocate_buffer_for_argv 0000000180028de0     libucrt:argv_parsing.obj
 0004:00000dec       $pdata$_configure_narrow_argv 0000000180028dec     libucrt:argv_parsing.obj
 0004:00000df8       $pdata$??$common_initialize_environment_nolock@D@@YAHXZ 0000000180028df8     libucrt:environment_initialization.obj
 0004:00000e04       $pdata$??$create_environment@D@@YAQEAPEADQEAD@Z 0000000180028e04     libucrt:environment_initialization.obj
 0004:00000e10       $pdata$??$free_environment@_W@@YAXQEAPEA_W@Z 0000000180028e10     libucrt:environment_initialization.obj
 0004:00000e10       $pdata$??$free_environment@D@@YAXQEAPEAD@Z 0000000180028e10     libucrt:environment_initialization.obj
 0004:00000e1c       $pdata$??$uninitialize_environment_internal@D@@YAXAEAPEAPEAD@Z 0000000180028e1c     libucrt:environment_initialization.obj
 0004:00000e28       $pdata$??$uninitialize_environment_internal@_W@@YAXAEAPEAPEA_W@Z 0000000180028e28     libucrt:environment_initialization.obj
 0004:00000e34       $pdata$__dcrt_uninitialize_environments_nolock 0000000180028e34     libucrt:environment_initialization.obj
 0004:00000e40       $pdata$??$?RV<lambda_7777bce6b2f8c936911f934f8298dc43>@@AEAV<lambda_f03950bc5685219e0bcd2087efbe011e>@@V<lambda_3883c3dff614d5e0c5f61bb1ac94921c>@@@?$__crt_seh_guarded_call@H@@QEAAH$$QEAV<lambda_7777bce6b2f8c936911f934f8298dc43>@@AEAV<lambda_f03950bc5685219e0bcd2087efbe011e>@@$$QEAV<lambda_3883c3dff614d5e0c5f61bb1ac94921c>@@@Z 0000000180028e40     libucrt:onexit.obj
 0004:00000e4c       $pdata$??$?RV<lambda_8369fcb7c4df1e85de37618bd2b85f07>@@AEAV<lambda_a10e4b102d4a2c3aac6f4f48bbdf488f>@@V<lambda_5b7707bd6d7a0c4713179f36c7fd995d>@@@?$__crt_seh_guarded_call@H@@QEAAH$$QEAV<lambda_8369fcb7c4df1e85de37618bd2b85f07>@@AEAV<lambda_a10e4b102d4a2c3aac6f4f48bbdf488f>@@$$QEAV<lambda_5b7707bd6d7a0c4713179f36c7fd995d>@@@Z 0000000180028e4c     libucrt:onexit.obj
 0004:00000e58       $pdata$??R<lambda_a10e4b102d4a2c3aac6f4f48bbdf488f>@@QEBAHXZ 0000000180028e58     libucrt:onexit.obj
 0004:00000e64       $pdata$??R<lambda_f03950bc5685219e0bcd2087efbe011e>@@QEBAHXZ 0000000180028e64     libucrt:onexit.obj
 0004:00000e70       $pdata$_execute_onexit_table 0000000180028e70     libucrt:onexit.obj
 0004:00000e7c       $pdata$_register_onexit_function 0000000180028e7c     libucrt:onexit.obj
 0004:00000e88       $pdata$initialize_c        0000000180028e88     libucrt:initialization.obj
 0004:00000e94       $pdata$uninitialize_environment 0000000180028e94     libucrt:initialization.obj
 0004:00000ea0       $pdata$initialize_pointers 0000000180028ea0     libucrt:initialization.obj
 0004:00000eac       $pdata$uninitialize_allocated_memory 0000000180028eac     libucrt:initialization.obj
 0004:00000eb8       $pdata$uninitialize_allocated_io_buffers 0000000180028eb8     libucrt:initialization.obj
 0004:00000ec4       $pdata$__acrt_thread_attach 0000000180028ec4     libucrt:initialization.obj
 0004:00000ed0       $pdata$__acrt_thread_detach 0000000180028ed0     libucrt:initialization.obj
 0004:00000edc       $pdata$__acrt_uninitialize 0000000180028edc     libucrt:initialization.obj
 0004:00000ee8       $pdata$__acrt_uninitialize_critical 0000000180028ee8     libucrt:initialization.obj
 0004:00000ef4       $pdata$_initterm           0000000180028ef4     libucrt:initterm.obj
 0004:00000f00       $pdata$_initterm_e         0000000180028f00     libucrt:initterm.obj
 0004:00000f0c       $pdata$terminate           0000000180028f0c     libucrt:terminate.obj
 0004:00000f18       $pdata$_recalloc_base      0000000180028f18     libucrt:recalloc.obj
 0004:00000f24       $pdata$strcpy_s            0000000180028f24     libucrt:strcpy_s.obj
 0004:00000f30       $pdata$abort               0000000180028f30     libucrt:abort.obj
 0004:00000f48       $pdata$??$?RV<lambda_0ae27a3a962d80f24befdcbee591983d>@@AEAV<lambda_8d0ee55de4b1038c4002e0adecdf1839>@@V<lambda_dc504788e8f1664fe9b84e20bfb512f2>@@@?$__crt_seh_guarded_call@X@@QEAAX$$QEAV<lambda_0ae27a3a962d80f24befdcbee591983d>@@AEAV<lambda_8d0ee55de4b1038c4002e0adecdf1839>@@$$QEAV<lambda_dc504788e8f1664fe9b84e20bfb512f2>@@@Z 0000000180028f48     libucrt:per_thread_data.obj
 0004:00000f54       $pdata$??$?RV<lambda_2d41944a1d46af3157314b8a01080d33>@@AEAV<lambda_8f455de75cd7d7f24b4096f044d8b9e6>@@V<lambda_aa500f224e6afead328df44964fe2772>@@@?$__crt_seh_guarded_call@X@@QEAAX$$QEAV<lambda_2d41944a1d46af3157314b8a01080d33>@@AEAV<lambda_8f455de75cd7d7f24b4096f044d8b9e6>@@$$QEAV<lambda_aa500f224e6afead328df44964fe2772>@@@Z 0000000180028f54     libucrt:per_thread_data.obj
 0004:00000f60       $pdata$??$?RV<lambda_aa87e3671a710a21b5dc78c0bdf72e11>@@AEAV<lambda_92619d2358a28f41a33ba319515a20b9>@@V<lambda_6992ecaafeb10aed2b74cb1fae11a551>@@@?$__crt_seh_guarded_call@X@@QEAAX$$QEAV<lambda_aa87e3671a710a21b5dc78c0bdf72e11>@@AEAV<lambda_92619d2358a28f41a33ba319515a20b9>@@$$QEAV<lambda_6992ecaafeb10aed2b74cb1fae11a551>@@@Z 0000000180028f60     libucrt:per_thread_data.obj
 0004:00000f6c       $pdata$??$?RV<lambda_f2e299630e499de9f9a165e60fcd3db5>@@AEAV<lambda_2ae9d31cdba2644fcbeaf08da7c24588>@@V<lambda_40d01ff24d0e7b3814fdbdcee8eab3c7>@@@?$__crt_seh_guarded_call@X@@QEAAX$$QEAV<lambda_f2e299630e499de9f9a165e60fcd3db5>@@AEAV<lambda_2ae9d31cdba2644fcbeaf08da7c24588>@@$$QEAV<lambda_40d01ff24d0e7b3814fdbdcee8eab3c7>@@@Z 0000000180028f6c     libucrt:per_thread_data.obj
 0004:00000f78       $pdata$?construct_ptd_array@@YAXQEAU__acrt_ptd@@@Z 0000000180028f78     libucrt:per_thread_data.obj
 0004:00000f84       $pdata$?destroy_fls@@YAXPEAX@Z 0000000180028f84     libucrt:per_thread_data.obj
 0004:00000f90       $pdata$?destroy_ptd_array@@YAXQEAU__acrt_ptd@@@Z 0000000180028f90     libucrt:per_thread_data.obj
 0004:00000f9c       $pdata$?replace_current_thread_locale_nolock@@YAXQEAU__acrt_ptd@@QEAU__crt_locale_data@@@Z 0000000180028f9c     libucrt:per_thread_data.obj
 0004:00000fa8       $pdata$__acrt_freeptd      0000000180028fa8     libucrt:per_thread_data.obj
 0004:00000fb4       $pdata$__acrt_getptd       0000000180028fb4     libucrt:per_thread_data.obj
 0004:00000fc0       $pdata$__acrt_getptd_head  0000000180028fc0     libucrt:per_thread_data.obj
 0004:00000fcc       $pdata$__acrt_getptd_noexit 0000000180028fcc     libucrt:per_thread_data.obj
 0004:00000fd8       $pdata$__acrt_initialize_ptd 0000000180028fd8     libucrt:per_thread_data.obj
 0004:00000fe4       $pdata$__acrt_uninitialize_ptd 0000000180028fe4     libucrt:per_thread_data.obj
 0004:00000ff0       $pdata$__acrt_initialize_locks 0000000180028ff0     libucrt:locks.obj
 0004:00000ffc       $pdata$__acrt_uninitialize_locks 0000000180028ffc     libucrt:locks.obj
 0004:00001008       $pdata$__acrt_get_process_end_policy 0000000180029008     libucrt:win_policies.obj
 0004:00001014       $pdata$?x_ismbbtype_l@@YAHPEAU__crt_locale_pointers@@IHH@Z 0000000180029014     libucrt:ismbbyte.obj
 0004:00001020       $pdata$__acrt_update_locale_info 0000000180029020     libucrt:locale_update.obj
 0004:0000102c       $pdata$__acrt_update_multibyte_info 000000018002902c     libucrt:locale_update.obj
 0004:00001038       $pdata$??$?RV<lambda_410d79af7f07d98d83a3f525b3859a53>@@AEAV<lambda_3e16ef9562a7dcce91392c22ab16ea36>@@V<lambda_38119f0e861e05405d8a144b9b982f0a>@@@?$__crt_seh_guarded_call@X@@QEAAX$$QEAV<lambda_410d79af7f07d98d83a3f525b3859a53>@@AEAV<lambda_3e16ef9562a7dcce91392c22ab16ea36>@@$$QEAV<lambda_38119f0e861e05405d8a144b9b982f0a>@@@Z 0000000180029038     libucrt:wsetlocale.obj
 0004:00001044       $pdata$__acrt_uninitialize_locale 0000000180029044     libucrt:wsetlocale.obj
 0004:00001050       $pdata$__pctype_func       0000000180029050     libucrt:ctype.obj
 0004:0000105c       $pdata$_isleadbyte_l       000000018002905c     libucrt:_wctype.obj
 0004:00001068       $pdata$_isctype_l          0000000180029068     libucrt:isctype.obj
 0004:00001074       $pdata$?__acrt_LCMapStringA_stat@@YAHPEAU__crt_locale_pointers@@PEB_WKPEBDHPEADHHH@Z 0000000180029074     libucrt:lcmapstringa.obj
 0004:00001080       $pdata$__acrt_LCMapStringA 0000000180029080     libucrt:lcmapstringa.obj
 0004:0000108c       $pdata$_calloc_base        000000018002908c     libucrt:calloc_base.obj
 0004:00001098       $pdata$_free_base          0000000180029098     libucrt:free_base.obj
 0004:000010a4       $pdata$?try_get_function@@YAPEAXW4function_id@?A0x391cf84c@@QEBDQEBW4module_id@2@2@Z 00000001800290a4     libucrt:winapi_thunks.obj
 0004:000010b0       $pdata$__acrt_AppPolicyGetProcessTerminationMethodInternal 00000001800290b0     libucrt:winapi_thunks.obj
 0004:000010bc       $pdata$__acrt_FlsAlloc     00000001800290bc     libucrt:winapi_thunks.obj
 0004:000010c8       $pdata$__acrt_FlsFree      00000001800290c8     libucrt:winapi_thunks.obj
 0004:000010d4       $pdata$__acrt_FlsGetValue  00000001800290d4     libucrt:winapi_thunks.obj
 0004:000010e0       $pdata$__acrt_FlsSetValue  00000001800290e0     libucrt:winapi_thunks.obj
 0004:000010ec       $pdata$__acrt_InitializeCriticalSectionEx 00000001800290ec     libucrt:winapi_thunks.obj
 0004:000010f8       $pdata$__acrt_LCMapStringEx 00000001800290f8     libucrt:winapi_thunks.obj
 0004:00001104       $pdata$__acrt_LocaleNameToLCID 0000000180029104     libucrt:winapi_thunks.obj
 0004:00001110       $pdata$__acrt_initialize_winapi_thunks 0000000180029110     libucrt:winapi_thunks.obj
 0004:0000111c       $pdata$__acrt_uninitialize_winapi_thunks 000000018002911c     libucrt:winapi_thunks.obj
 0004:00001128       $pdata$_fcloseall          0000000180029128     libucrt:closeall.obj
 0004:00001134       $pdata$??$?RV<lambda_842d9ff0dc9ef11c61343bbaebe7f885>@@AEAV<lambda_c5860995281e5c4ce005b3de8f5874ee>@@V<lambda_d90129c13df834fdcbf8d2b88dafcf2d>@@@?$__crt_seh_guarded_call@X@@QEAAX$$QEAV<lambda_842d9ff0dc9ef11c61343bbaebe7f885>@@AEAV<lambda_c5860995281e5c4ce005b3de8f5874ee>@@$$QEAV<lambda_d90129c13df834fdcbf8d2b88dafcf2d>@@@Z 0000000180029134     libucrt:fflush.obj
 0004:00001140       $pdata$??$?RV<lambda_886d6c58226a84441f68b9f2b8217b83>@@AEAV<lambda_ab61a845afdef5b7c387490eaf3616ee>@@V<lambda_f7f22ab5edc0698d5f6905b0d3f44752>@@@?$__crt_seh_guarded_call@X@@QEAAX$$QEAV<lambda_886d6c58226a84441f68b9f2b8217b83>@@AEAV<lambda_ab61a845afdef5b7c387490eaf3616ee>@@$$QEAV<lambda_f7f22ab5edc0698d5f6905b0d3f44752>@@@Z 0000000180029140     libucrt:fflush.obj
 0004:0000114c       $pdata$?common_flush_all@@YAH_N@Z 000000018002914c     libucrt:fflush.obj
 0004:00001158       $pdata$__acrt_stdio_flush_nolock 0000000180029158     libucrt:fflush.obj
 0004:00001164       $pdata$_fflush_nolock      0000000180029164     libucrt:fflush.obj
 0004:00001170       $pdata$__acrt_stdio_free_buffer_nolock 0000000180029170     libucrt:_freebuf.obj
 0004:0000117c       $pdata$?initialize_inherited_file_handles_nolock@@YAXXZ 000000018002917c     libucrt:ioinit.obj
 0004:00001188       $pdata$?initialize_stdio_handles_nolock@@YAXXZ 0000000180029188     libucrt:ioinit.obj
 0004:00001194       $pdata$__acrt_initialize_lowio 0000000180029194     libucrt:ioinit.obj
 0004:000011a0       $pdata$__acrt_uninitialize_lowio 00000001800291a0     libucrt:ioinit.obj
 0004:000011ac       $pdata$isdigit             00000001800291ac     libucrt:_ctype.obj
 0004:000011b8       $pdata$_malloc_base        00000001800291b8     libucrt:malloc_base.obj
 0004:000011c4       $pdata$_mbtowc_l           00000001800291c4     libucrt:mbtowc.obj
 0004:000011d0       $pdata$_wctomb_s_l         00000001800291d0     libucrt:wctomb.obj
 0004:000011dc       $pdata$wctomb_s            00000001800291dc     libucrt:wctomb.obj
 0004:000011e8       $pdata$?fp_format_a@@YAHQEBNPEAD_KQEAD2H_NIQEAU__crt_locale_pointers@@@Z 00000001800291e8     libucrt:cvt.obj
 0004:000011f4       $pdata$?fp_format_e@@YAHQEBNQEAD_K12H_NIQEAU__crt_locale_pointers@@@Z 00000001800291f4     libucrt:cvt.obj
 0004:00001200       $pdata$?fp_format_e_internal@@YAHQEAD_KH_NIQEAU_strflt@@2QEAU__crt_locale_pointers@@@Z 0000000180029200     libucrt:cvt.obj
 0004:0000120c       $pdata$?fp_format_f_internal@@YAHQEAD_KHQEAU_strflt@@_NQEAU__crt_locale_pointers@@@Z 000000018002920c     libucrt:cvt.obj
 0004:00001218       $pdata$?fp_format_g@@YAHQEBNQEAD_K12H_NIQEAU__crt_locale_pointers@@@Z 0000000180029218     libucrt:cvt.obj
 0004:00001224       $pdata$?fp_format_nan_or_infinity@@YAHW4__acrt_fp_class@@_NPEAD_K1@Z 0000000180029224     libucrt:cvt.obj
 0004:00001230       $pdata$__acrt_fp_format    0000000180029230     libucrt:cvt.obj
 0004:0000123c       $pdata$_fileno             000000018002923c     libucrt:fileno.obj
 0004:00001248       $pdata$__acrt_stdio_begin_temporary_buffering_nolock 0000000180029248     libucrt:_sftbuf.obj
 0004:00001254       $pdata$__acrt_stdio_end_temporary_buffering_nolock 0000000180029254     libucrt:_sftbuf.obj
 0004:00001260       $pdata$??$common_expand_argv_wildcards@D@@YAHQEAPEADQEAPEAPEAD@Z 0000000180029260     libucrt:argv_wildcards.obj
 0004:0000126c       $pdata$??$copy_and_add_argument_to_buffer@D@@YAHQEBD0_KAEAV?$argument_list@D@?A0x5f5c8891@@@Z 000000018002926c     libucrt:argv_wildcards.obj
 0004:00001278       $pdata$??$expand_argument_wildcards@D@@YAHQEAD0AEAV?$argument_list@D@?A0x5f5c8891@@@Z 0000000180029278     libucrt:argv_wildcards.obj
 0004:00001284       $pdata$__acrt_GetModuleFileNameA 0000000180029284     libucrt:getmodulefilenamea.obj
 0004:00001290       $pdata$??$?RV<lambda_efdfa57d1f175319df784efa44bb7b81>@@AEAV<lambda_5f0a4c1567f8adc6734073e5d1e1b35c>@@V<lambda_2e8a7d3640ea6ccb4c2413664c2db6fd>@@@?$__crt_seh_guarded_call@X@@QEAAX$$QEAV<lambda_efdfa57d1f175319df784efa44bb7b81>@@AEAV<lambda_5f0a4c1567f8adc6734073e5d1e1b35c>@@$$QEAV<lambda_2e8a7d3640ea6ccb4c2413664c2db6fd>@@@Z 0000000180029290     libucrt:mbctype.obj
 0004:0000129c       $pdata$?getSystemCP@@YAHH@Z 000000018002929c     libucrt:mbctype.obj
 0004:000012a8       $pdata$?setSBCS@@YAXPEAU__crt_multibyte_data@@@Z 00000001800292a8     libucrt:mbctype.obj
 0004:000012b4       $pdata$?setSBUpLow@@YAXPEAU__crt_multibyte_data@@@Z 00000001800292b4     libucrt:mbctype.obj
 0004:000012c0       $pdata$?setmbcp_internal@@YAHH_NQEAU__acrt_ptd@@QEAPEAU__crt_multibyte_data@@@Z 00000001800292c0     libucrt:mbctype.obj
 0004:000012cc       $pdata$?update_thread_multibyte_data_internal@@YAPEAU__crt_multibyte_data@@QEAU__acrt_ptd@@QEAPEAU1@@Z 00000001800292cc     libucrt:mbctype.obj
 0004:000012d8       $pdata$__acrt_initialize_multibyte 00000001800292d8     libucrt:mbctype.obj
 0004:000012e4       $pdata$__acrt_update_thread_multibyte_data 00000001800292e4     libucrt:mbctype.obj
 0004:000012f0       $pdata$_setmbcp_nolock     00000001800292f0     libucrt:mbctype.obj
 0004:000012fc       $pdata$__acrt_initialize_command_line 00000001800292fc     libucrt:argv_data.obj
 0004:00001308       $pdata$__acrt_WideCharToMultiByte 0000000180029308     libucrt:widechartomultibyte.obj
 0004:00001314       $pdata$__dcrt_get_narrow_environment_from_os 0000000180029314     libucrt:get_environment_from_os.obj
 0004:00001320       $pdata$__acrt_initialize_heap 0000000180029320     libucrt:heap_handle.obj
 0004:0000132c       $pdata$__acrt_execute_initializers 000000018002932c     libucrt:shared_initialization.obj
 0004:00001338       $pdata$__acrt_execute_uninitializers 0000000180029338     libucrt:shared_initialization.obj
 0004:00001344       $pdata$??$?RV<lambda_450d765d439847d4c735a33c368b5fc0>@@AEAV<lambda_44731a7d0e6d81c3e6aa82d741081786>@@V<lambda_601a2a7da3b7a96e9554ac7215c4b07c>@@@?$__crt_seh_guarded_call@P6AXH@Z@@QEAAP6AXH@Z$$QEAV<lambda_450d765d439847d4c735a33c368b5fc0>@@AEAV<lambda_44731a7d0e6d81c3e6aa82d741081786>@@$$QEAV<lambda_601a2a7da3b7a96e9554ac7215c4b07c>@@@Z 0000000180029344     libucrt:signal.obj
 0004:00001350       $pdata$__acrt_get_sigabrt_handler 0000000180029350     libucrt:signal.obj
 0004:0000135c       $pdata$raise               000000018002935c     libucrt:signal.obj
 0004:00001368       $pdata$_msize_base         0000000180029368     libucrt:msize.obj
 0004:00001374       $pdata$_realloc_base       0000000180029374     libucrt:realloc_base.obj
 0004:00001380       $pdata$__acrt_free_locale  0000000180029380     libucrt:locale_refcounting.obj
 0004:0000138c       $pdata$__acrt_locale_free_lc_time_if_unreferenced 000000018002938c     libucrt:locale_refcounting.obj
 0004:00001398       $pdata$__acrt_release_locale_ref 0000000180029398     libucrt:locale_refcounting.obj
 0004:000013a4       $pdata$__acrt_update_thread_locale_data 00000001800293a4     libucrt:locale_refcounting.obj
 0004:000013b0       $pdata$_updatetlocinfoEx_nolock 00000001800293b0     libucrt:locale_refcounting.obj
 0004:000013bc       $pdata$__acrt_locale_free_monetary 00000001800293bc     libucrt:initmon.obj
 0004:000013c8       $pdata$__acrt_locale_free_numeric 00000001800293c8     libucrt:initnum.obj
 0004:000013d4       $pdata$?free_crt_array_internal@@YAXQEAPEBX_K@Z 00000001800293d4     libucrt:inittime.obj
 0004:000013e0       $pdata$__acrt_locale_free_time 00000001800293e0     libucrt:inittime.obj
 0004:000013ec       $pdata$__acrt_GetStringTypeA 00000001800293ec     libucrt:getstringtypea.obj
 0004:000013f8       $pdata$?GetTableIndexFromLocaleName@@YAHPEB_W@Z 00000001800293f8     libucrt:lcidtoname_downlevel.obj
 0004:00001404       $pdata$__acrt_DownlevelLocaleNameToLCID 0000000180029404     libucrt:lcidtoname_downlevel.obj
 0004:00001410       $pdata$_fclose_nolock      0000000180029410     libucrt:fclose.obj
 0004:0000141c       $pdata$fclose              000000018002941c     libucrt:fclose.obj
 0004:00001428       $pdata$??$?RV<lambda_a37b2b86f63e897a80ea819b0eb08c01>@@AEAV<lambda_38ce7e780aa69e748d6df282ebc68efe>@@V<lambda_99fb1378e971ab6e7edea83e3a7a83a2>@@@?$__crt_seh_guarded_call@H@@QEAAH$$QEAV<lambda_a37b2b86f63e897a80ea819b0eb08c01>@@AEAV<lambda_38ce7e780aa69e748d6df282ebc68efe>@@$$QEAV<lambda_99fb1378e971ab6e7edea83e3a7a83a2>@@@Z 0000000180029428     libucrt:commit.obj
 0004:00001434       $pdata$_commit             0000000180029434     libucrt:commit.obj
 0004:00001440       $pdata$?write_double_translated_ansi_nolock@@YA?AUwrite_result@?A0x17268360@@HQEBDI@Z 0000000180029440     libucrt:write.obj
 0004:0000144c       $pdata$?write_text_ansi_nolock@@YA?AUwrite_result@?A0x17268360@@HQEBDI@Z 000000018002944c     libucrt:write.obj
 0004:00001458       $pdata$?write_text_utf16le_nolock@@YA?AUwrite_result@?A0x17268360@@HQEBDI@Z 0000000180029458     libucrt:write.obj
 0004:00001464       $pdata$?write_text_utf8_nolock@@YA?AUwrite_result@?A0x17268360@@HQEBDI@Z 0000000180029464     libucrt:write.obj
 0004:00001470       $pdata$_write              0000000180029470     libucrt:write.obj
 0004:0000147c       $pdata$_write_nolock       000000018002947c     libucrt:write.obj
 0004:00001488       $pdata$__acrt_lowio_create_handle_array 0000000180029488     libucrt:osfinfo.obj
 0004:00001494       $pdata$__acrt_lowio_destroy_handle_array 0000000180029494     libucrt:osfinfo.obj
 0004:000014a0       $pdata$__acrt_lowio_ensure_fh_exists 00000001800294a0     libucrt:osfinfo.obj
 0004:000014ac       $pdata$_free_osfhnd        00000001800294ac     libucrt:osfinfo.obj
 0004:000014b8       $pdata$_get_osfhandle      00000001800294b8     libucrt:osfinfo.obj
 0004:000014c4       $pdata$?__mbrtowc_utf8@__crt_mbstring@@YA_KPEA_WPEBD_KPEAU_Mbstatet@@@Z 00000001800294c4     libucrt:mbrtowc.obj
 0004:000014d0       $pdata$?__mbsrtowcs_utf8@__crt_mbstring@@YA_KPEA_WPEAPEBD_KPEAU_Mbstatet@@@Z 00000001800294d0     libucrt:mbrtowc.obj
 0004:000014dc       $pdata$__acrt_fp_strflt_to_string 00000001800294dc     libucrt:_fptostr.obj
 0004:000014e8       $pdata$?divide@__crt_strtox@@YA_KAEAUbig_integer@1@AEBU21@@Z 00000001800294e8     libucrt:cfout.obj
 0004:000014f4       $pdata$0$?divide@__crt_strtox@@YA_KAEAUbig_integer@1@AEBU21@@Z 00000001800294f4     libucrt:cfout.obj
 0004:00001500       $pdata$6$?divide@__crt_strtox@@YA_KAEAUbig_integer@1@AEBU21@@Z 0000000180029500     libucrt:cfout.obj
 0004:0000150c       $pdata$7$?divide@__crt_strtox@@YA_KAEAUbig_integer@1@AEBU21@@Z 000000018002950c     libucrt:cfout.obj
 0004:00001518       $pdata$8$?divide@__crt_strtox@@YA_KAEAUbig_integer@1@AEBU21@@Z 0000000180029518     libucrt:cfout.obj
 0004:00001524       $pdata$__acrt_fltout       0000000180029524     libucrt:cfout.obj
 0004:00001530       $pdata$memcpy_s            0000000180029530     libucrt:cfout.obj
 0004:0000153c       $pdata$??$write_buffer_nolock@D@@YA_NDV__crt_stdio_stream@@@Z 000000018002953c     libucrt:_flsbuf.obj
 0004:00001548       $pdata$__acrt_stdio_flush_and_write_narrow_nolock 0000000180029548     libucrt:_flsbuf.obj
 0004:00001554       $pdata$_isatty             0000000180029554     libucrt:isatty.obj
 0004:00001560       $pdata$qsort               0000000180029560     libucrt:qsort.obj
 0004:0000156c       $pdata$4$qsort             000000018002956c     libucrt:qsort.obj
 0004:00001578       $pdata$5$qsort             0000000180029578     libucrt:qsort.obj
 0004:00001584       $pdata$strncpy_s           0000000180029584     libucrt:strncpy_s.obj
 0004:00001590       $pdata$fallbackMethod      0000000180029590     libucrt:strpbrk.obj
 0004:0000159c       $pdata$strpbrk             000000018002959c     libucrt:strpbrk.obj
 0004:000015a8       $pdata$??$__acrt_convert_wcs_mbs@D_W$$A6A_KPEA_WPEBD_KPEAU__crt_locale_pointers@@@ZU__crt_win32_buffer_internal_dynamic_resizing@@@@YAHQEBDAEAV?$__crt_win32_buffer@_WU__crt_win32_buffer_internal_dynamic_resizing@@@@A6A_KPEA_WPEBD_KPEAU__crt_locale_pointers@@@Z5@Z 00000001800295a8     libucrt:findfirstfileexa.obj
 0004:000015b4       $pdata$__acrt_FindFirstFileExA 00000001800295b4     libucrt:findfirstfileexa.obj
 0004:000015c0       $pdata$??$__acrt_convert_wcs_mbs@_WD$$A6A_KPEADPEB_W_KPEAU__crt_locale_pointers@@@ZU__crt_win32_buffer_no_resizing@@@@YAHQEB_WAEAV?$__crt_win32_buffer@DU__crt_win32_buffer_no_resizing@@@@A6A_KPEADPEB_W_KPEAU__crt_locale_pointers@@@Z5@Z 00000001800295c0     libucrt:findnextfilea.obj
 0004:000015cc       $pdata$__acrt_FindNextFileA 00000001800295cc     libucrt:findnextfilea.obj
 0004:000015d8       $pdata$_mbsdec_l           00000001800295d8     libucrt:mbsdec.obj
 0004:000015e4       $pdata$?_mbstowcs_l_helper@@YA_KPEA_WPEBD_KPEAU__crt_locale_pointers@@@Z 00000001800295e4     libucrt:mbstowcs.obj
 0004:000015f0       $pdata$?initialize_multibyte@@YAHXZ 00000001800295f0     libucrt:multibyte_initializer.obj
 0004:000015fc       $pdata$??$?RV<lambda_751a882b2c74d4b022dec766aa51a29a>@@AEAV<lambda_628dfdc04ba53c8bfc02c9951375f3f5>@@V<lambda_f6c7be5f7998530c34de24c7437d6b54>@@@?$__crt_seh_guarded_call@H@@QEAAH$$QEAV<lambda_751a882b2c74d4b022dec766aa51a29a>@@AEAV<lambda_628dfdc04ba53c8bfc02c9951375f3f5>@@$$QEAV<lambda_f6c7be5f7998530c34de24c7437d6b54>@@@Z 00000001800295fc     libucrt:close.obj
 0004:00001608       $pdata$_close              0000000180029608     libucrt:close.obj
 0004:00001614       $pdata$_close_nolock       0000000180029614     libucrt:close.obj
 0004:00001620       $pdata$??$common_lseek@_J@@YA_JH_JH@Z 0000000180029620     libucrt:lseek.obj
 0004:0000162c       $pdata$??$common_lseek_nolock@_J@@YA_JH_JH@Z 000000018002962c     libucrt:lseek.obj
 0004:00001638       $pdata$_putwch_nolock      0000000180029638     libucrt:putwch.obj
 0004:00001644       $pdata$?__mbrtoc32_utf8@__crt_mbstring@@YA_KPEA_UPEBD_KPEAU_Mbstatet@@@Z 0000000180029644     libucrt:mbrtoc32.obj
 0004:00001650       $pdata$fegetenv            0000000180029650     libucrt:fegetenv.obj
 0004:0000165c       $pdata$fesetenv            000000018002965c     libucrt:fesetenv.obj
 0004:00001668       $pdata$feholdexcept        0000000180029668     libucrt:feholdexcept.obj
 0004:00001680       $pdata$__acrt_stdio_allocate_buffer_nolock 0000000180029680     libucrt:_getbuf.obj
 0004:0000168c       $pdata$?_wcstombs_l_helper@@YA_KPEADPEB_W_KPEAU__crt_locale_pointers@@@Z 000000018002968c     libucrt:wcstombs.obj
 0004:00001698       $pdata$__dcrt_lowio_ensure_console_output_initialized 0000000180029698     libucrt:initcon.obj
 0004:000016a4       $pdata$__dcrt_terminate_console_output 00000001800296a4     libucrt:initcon.obj
 0004:000016b0       $pdata$__dcrt_write_console 00000001800296b0     libucrt:initcon.obj
 0004:000016bc       $pdata$__acrt_fenv_set_control 00000001800296bc     libucrt:_fenvutils.obj
 0004:000016c8       $pdata$_clearfp            00000001800296c8     libucrt:ieee.obj
 0004:000016d4       $pdata$_call_matherr       00000001800296d4     libucrt:libm_error.obj
 0004:000016e0       $pdata$_exception_enabled  00000001800296e0     libucrt:libm_error.obj
 0004:000016ec       $pdata$_handle_error       00000001800296ec     libucrt:libm_error.obj
 0004:000016f8       $pdata$__acrt_initialize_fma3 00000001800296f8     libucrt:fma3_available.obj
 0004:00001704       $pdata$_log10_special      0000000180029704     libucrt:log_special.obj
 0004:00001710       $pdata$_log_special_common 0000000180029710     libucrt:log_special.obj
 0004:0000171c       $pdata$?__wcsrtombs_utf8@__crt_mbstring@@YA_KPEADPEAPEB_W_KPEAU_Mbstatet@@@Z 000000018002971c     libucrt:wcrtomb.obj
 0004:00001734       $pdata$_raise_exc          0000000180029734     libucrt:fpexcept.obj
 0004:00001740       $pdata$_raise_exc_ex       0000000180029740     libucrt:fpexcept.obj
 0004:0000174c       $pdata$_set_errno_from_matherr 000000018002974c     libucrt:fpexcept.obj
 0004:00001758       $pdata$_clrfp              0000000180029758     libucrt:fpctrl.obj
 0004:00001764       $pdata$_ctrlfp             0000000180029764     libucrt:fpctrl.obj
 0004:00001770       $pdata$_set_statfp         0000000180029770     libucrt:fpctrl.obj
 0004:0000177c       $pdata$_statfp             000000018002977c     libucrt:fpctrl.obj
 0004:00001788       $pdata$?__c16rtomb_utf8@__crt_mbstring@@YA_KPEAD_SPEAU_Mbstatet@@@Z 0000000180029788     libucrt:c16rtomb.obj
 0004:00001794       $pdata$?__c32rtomb_utf8@__crt_mbstring@@YA_KPEAD_UPEAU_Mbstatet@@@Z 0000000180029794     libucrt:c32rtomb.obj
 0004:000017a0       $pdata$_IsNonwritableInCurrentImage 00000001800297a0     LIBCMT:pesect.obj
 0004:000017ac       $pdata$__GSHandlerCheck    00000001800297ac     LIBCMT:_gshandler_.obj
 0004:000017b8       $pdata$__GSHandlerCheckCommon 00000001800297b8     LIBCMT:_gshandler_.obj
 0004:000017d0       $pdata$__GSHandlerCheck_EH 00000001800297d0     LIBCMT:gshandlereh.obj
 0004:000017dc       $pdata$strrchr             00000001800297dc     libvcruntime:strrchr.obj
 0004:000017e8       $pdata$strchr              00000001800297e8     libvcruntime:strchr.obj
 0004:00001818       $pdata$__scrt_is_nonwritable_in_current_image$filt$0 0000000180029818     LIBCMT:utility.obj
 0004:00001824       $pdata$?fin$0@?0??dllmain_crt_process_attach@@YAHQEAUHINSTANCE__@@QEAX@Z@4HA 0000000180029824     LIBCMT:dll_dllmain.obj
 0004:00001830       $pdata$?fin$0@?0??dllmain_crt_process_detach@@YAH_N@Z@4HA 0000000180029830     LIBCMT:dll_dllmain.obj
 0004:0000183c       $pdata$?filt$0@?0??dllmain_dispatch@@YAHQEAUHINSTANCE__@@KQEAX@Z@4HA 000000018002983c     LIBCMT:dll_dllmain.obj
 0004:00001848       $pdata$_CallSETranslator$filt$0 0000000180029848     libvcruntime:risctrnsctrl.obj
 0004:00001854       $pdata$__CxxCallCatchBlock$filt$0 0000000180029854     libvcruntime:frame.obj
 0004:00001860       $pdata$__CxxCallCatchBlock$fin$1 0000000180029860     libvcruntime:frame.obj
 0004:0000186c       $pdata$__FrameUnwindToState$filt$0 000000018002986c     libvcruntime:frame.obj
 0004:00001878       $pdata$__FrameUnwindToState$fin$1 0000000180029878     libvcruntime:frame.obj
 0004:00001884       $pdata$__DestructExceptionObject$filt$0 0000000180029884     libvcruntime:ehhelpers.obj
 0004:00001890       $pdata$?fin$0@?0???$?RV<lambda_7777bce6b2f8c936911f934f8298dc43>@@AEAV<lambda_f03950bc5685219e0bcd2087efbe011e>@@V<lambda_3883c3dff614d5e0c5f61bb1ac94921c>@@@?$__crt_seh_guarded_call@H@@QEAAH$$QEAV<lambda_7777bce6b2f8c936911f934f8298dc43>@@AEAV<lambda_f03950bc5685219e0bcd2087efbe011e>@@$$QEAV<lambda_3883c3dff614d5e0c5f61bb1ac94921c>@@@Z@4HA 0000000180029890     libucrt:onexit.obj
 0004:00001890       $pdata$?fin$0@?0???$?RV<lambda_d80eeec6fff315bfe5c115232f3240e3>@@AEAV<lambda_6e4b09c48022b2350581041d5f6b0c4c>@@V<lambda_2358e3775559c9db80273638284d5e45>@@@?$__crt_seh_guarded_call@X@@QEAAX$$QEAV<lambda_d80eeec6fff315bfe5c115232f3240e3>@@AEAV<lambda_6e4b09c48022b2350581041d5f6b0c4c>@@$$QEAV<lambda_2358e3775559c9db80273638284d5e45>@@@Z@4HA 0000000180029890     libucrt:exit.obj
 0004:00001890       $pdata$?fin$0@?0???$?RV<lambda_8369fcb7c4df1e85de37618bd2b85f07>@@AEAV<lambda_a10e4b102d4a2c3aac6f4f48bbdf488f>@@V<lambda_5b7707bd6d7a0c4713179f36c7fd995d>@@@?$__crt_seh_guarded_call@H@@QEAAH$$QEAV<lambda_8369fcb7c4df1e85de37618bd2b85f07>@@AEAV<lambda_a10e4b102d4a2c3aac6f4f48bbdf488f>@@$$QEAV<lambda_5b7707bd6d7a0c4713179f36c7fd995d>@@@Z@4HA 0000000180029890     libucrt:onexit.obj
 0004:00001890       $pdata$?fin$0@?0???$?RV<lambda_f2e299630e499de9f9a165e60fcd3db5>@@AEAV<lambda_2ae9d31cdba2644fcbeaf08da7c24588>@@V<lambda_40d01ff24d0e7b3814fdbdcee8eab3c7>@@@?$__crt_seh_guarded_call@X@@QEAAX$$QEAV<lambda_f2e299630e499de9f9a165e60fcd3db5>@@AEAV<lambda_2ae9d31cdba2644fcbeaf08da7c24588>@@$$QEAV<lambda_40d01ff24d0e7b3814fdbdcee8eab3c7>@@@Z@4HA 0000000180029890     libucrt:per_thread_data.obj
 0004:00001890       $pdata$?fin$0@?0???$?RV<lambda_aa87e3671a710a21b5dc78c0bdf72e11>@@AEAV<lambda_92619d2358a28f41a33ba319515a20b9>@@V<lambda_6992ecaafeb10aed2b74cb1fae11a551>@@@?$__crt_seh_guarded_call@X@@QEAAX$$QEAV<lambda_aa87e3671a710a21b5dc78c0bdf72e11>@@AEAV<lambda_92619d2358a28f41a33ba319515a20b9>@@$$QEAV<lambda_6992ecaafeb10aed2b74cb1fae11a551>@@@Z@4HA 0000000180029890     libucrt:per_thread_data.obj
 0004:00001890       $pdata$?fin$0@?0???$?RV<lambda_0ae27a3a962d80f24befdcbee591983d>@@AEAV<lambda_8d0ee55de4b1038c4002e0adecdf1839>@@V<lambda_dc504788e8f1664fe9b84e20bfb512f2>@@@?$__crt_seh_guarded_call@X@@QEAAX$$QEAV<lambda_0ae27a3a962d80f24befdcbee591983d>@@AEAV<lambda_8d0ee55de4b1038c4002e0adecdf1839>@@$$QEAV<lambda_dc504788e8f1664fe9b84e20bfb512f2>@@@Z@4HA 0000000180029890     libucrt:per_thread_data.obj
 0004:00001890       $pdata$?fin$0@?0???$?RV<lambda_450d765d439847d4c735a33c368b5fc0>@@AEAV<lambda_44731a7d0e6d81c3e6aa82d741081786>@@V<lambda_601a2a7da3b7a96e9554ac7215c4b07c>@@@?$__crt_seh_guarded_call@P6AXH@Z@@QEAAP6AXH@Z$$QEAV<lambda_450d765d439847d4c735a33c368b5fc0>@@AEAV<lambda_44731a7d0e6d81c3e6aa82d741081786>@@$$QEAV<lambda_601a2a7da3b7a96e9554ac7215c4b07c>@@@Z@4HA 0000000180029890     libucrt:signal.obj
 0004:00001890       $pdata$?fin$0@?0???$?RV<lambda_2d41944a1d46af3157314b8a01080d33>@@AEAV<lambda_8f455de75cd7d7f24b4096f044d8b9e6>@@V<lambda_aa500f224e6afead328df44964fe2772>@@@?$__crt_seh_guarded_call@X@@QEAAX$$QEAV<lambda_2d41944a1d46af3157314b8a01080d33>@@AEAV<lambda_8f455de75cd7d7f24b4096f044d8b9e6>@@$$QEAV<lambda_aa500f224e6afead328df44964fe2772>@@@Z@4HA 0000000180029890     libucrt:per_thread_data.obj
 0004:00001890       $pdata$?fin$0@?0???$?RV<lambda_efdfa57d1f175319df784efa44bb7b81>@@AEAV<lambda_5f0a4c1567f8adc6734073e5d1e1b35c>@@V<lambda_2e8a7d3640ea6ccb4c2413664c2db6fd>@@@?$__crt_seh_guarded_call@X@@QEAAX$$QEAV<lambda_efdfa57d1f175319df784efa44bb7b81>@@AEAV<lambda_5f0a4c1567f8adc6734073e5d1e1b35c>@@$$QEAV<lambda_2e8a7d3640ea6ccb4c2413664c2db6fd>@@@Z@4HA 0000000180029890     libucrt:mbctype.obj
 0004:0000189c       $pdata$?filt$0@?0???R<lambda_6e4b09c48022b2350581041d5f6b0c4c>@@QEBA@XZ@4HA 000000018002989c     libucrt:exit.obj
 0004:000018a8       $pdata$?fin$0@?0???$?RV<lambda_a62c933ada0517137acf5807a1eeac1f>@@AEAV<lambda_a31071773b9a94e445cbd5d04ef99106>@@V<lambda_56065050dbf3ada7e59a83db45153de3>@@@?$__crt_seh_guarded_call@H@@QEAAH$$QEAV<lambda_a62c933ada0517137acf5807a1eeac1f>@@AEAV<lambda_a31071773b9a94e445cbd5d04ef99106>@@$$QEAV<lambda_56065050dbf3ada7e59a83db45153de3>@@@Z@4HA 00000001800298a8     libucrt:output.obj
 0004:000018a8       $pdata$?fin$0@?0???$?RV<lambda_842d9ff0dc9ef11c61343bbaebe7f885>@@AEAV<lambda_c5860995281e5c4ce005b3de8f5874ee>@@V<lambda_d90129c13df834fdcbf8d2b88dafcf2d>@@@?$__crt_seh_guarded_call@X@@QEAAX$$QEAV<lambda_842d9ff0dc9ef11c61343bbaebe7f885>@@AEAV<lambda_c5860995281e5c4ce005b3de8f5874ee>@@$$QEAV<lambda_d90129c13df834fdcbf8d2b88dafcf2d>@@@Z@4HA 00000001800298a8     libucrt:fflush.obj
 0004:000018b4       $pdata$_query_new_handler$fin$0 00000001800298b4     libucrt:new_handler.obj
 0004:000018c0       $pdata$?fin$0@?0???$?RV<lambda_410d79af7f07d98d83a3f525b3859a53>@@AEAV<lambda_3e16ef9562a7dcce91392c22ab16ea36>@@V<lambda_38119f0e861e05405d8a144b9b982f0a>@@@?$__crt_seh_guarded_call@X@@QEAAX$$QEAV<lambda_410d79af7f07d98d83a3f525b3859a53>@@AEAV<lambda_3e16ef9562a7dcce91392c22ab16ea36>@@$$QEAV<lambda_38119f0e861e05405d8a144b9b982f0a>@@@Z@4HA 00000001800298c0     libucrt:wsetlocale.obj
 0004:000018cc       $pdata$_fcloseall$fin$0    00000001800298cc     libucrt:closeall.obj
 0004:000018d8       $pdata$?fin$0@?0???$?RV<lambda_886d6c58226a84441f68b9f2b8217b83>@@AEAV<lambda_ab61a845afdef5b7c387490eaf3616ee>@@V<lambda_f7f22ab5edc0698d5f6905b0d3f44752>@@@?$__crt_seh_guarded_call@X@@QEAAX$$QEAV<lambda_886d6c58226a84441f68b9f2b8217b83>@@AEAV<lambda_ab61a845afdef5b7c387490eaf3616ee>@@$$QEAV<lambda_f7f22ab5edc0698d5f6905b0d3f44752>@@@Z@4HA 00000001800298d8     libucrt:fflush.obj
 0004:000018e4       $pdata$__acrt_lowio_ensure_fh_exists$fin$0 00000001800298e4     libucrt:osfinfo.obj
 0004:000018e4       $pdata$__acrt_initialize_lowio$fin$0 00000001800298e4     libucrt:ioinit.obj
 0004:000018f0       $pdata$?fin$0@?0??update_thread_multibyte_data_internal@@YAPEAU__crt_multibyte_data@@QEAU__acrt_ptd@@QEAPEAU1@@Z@4HA 00000001800298f0     libucrt:mbctype.obj
 0004:000018fc       $pdata$raise$fin$0         00000001800298fc     libucrt:signal.obj
 0004:00001908       $pdata$__acrt_update_thread_locale_data$fin$0 0000000180029908     libucrt:locale_refcounting.obj
 0004:00001914       $pdata$fclose$fin$0        0000000180029914     libucrt:fclose.obj
 0004:00001920       $pdata$?fin$0@?0???$?RV<lambda_751a882b2c74d4b022dec766aa51a29a>@@AEAV<lambda_628dfdc04ba53c8bfc02c9951375f3f5>@@V<lambda_f6c7be5f7998530c34de24c7437d6b54>@@@?$__crt_seh_guarded_call@H@@QEAAH$$QEAV<lambda_751a882b2c74d4b022dec766aa51a29a>@@AEAV<lambda_628dfdc04ba53c8bfc02c9951375f3f5>@@$$QEAV<lambda_f6c7be5f7998530c34de24c7437d6b54>@@@Z@4HA 0000000180029920     libucrt:close.obj
 0004:00001920       $pdata$?fin$0@?0???$?RV<lambda_a37b2b86f63e897a80ea819b0eb08c01>@@AEAV<lambda_38ce7e780aa69e748d6df282ebc68efe>@@V<lambda_99fb1378e971ab6e7edea83e3a7a83a2>@@@?$__crt_seh_guarded_call@H@@QEAAH$$QEAV<lambda_a37b2b86f63e897a80ea819b0eb08c01>@@AEAV<lambda_38ce7e780aa69e748d6df282ebc68efe>@@$$QEAV<lambda_99fb1378e971ab6e7edea83e3a7a83a2>@@@Z@4HA 0000000180029920     libucrt:commit.obj
 0004:0000192c       $pdata$?fin$0@?0???$common_lseek@_J@@YA_JH_JH@Z@4HA 000000018002992c     libucrt:lseek.obj
 0004:0000192c       $pdata$_write$fin$0        000000018002992c     libucrt:write.obj
 0004:00001938       $pdata$_ctrlfp$filt$0      0000000180029938     libucrt:fpctrl.obj
 0004:00001944       $pdata$_IsNonwritableInCurrentImage$filt$0 0000000180029944     LIBCMT:pesect.obj
 0004:00001950       $pdata$??__FdeviceMap@@YAXXZ 0000000180029950     deviceList.obj
 0005:00000060       $R000000                   000000018002a060     * linker generated manifest res *

 Exports

  ordinal    name

        1    _register_detection_
